	.text
	.file	"Tensor.cpp"
	.section	.rodata.cst4,"aM",@progbits,4
	.p2align	2                               # -- Begin function _ZN6TensorIfE9init_dataERKN6tensor4initE
.LCPI0_0:
	.long	0x4f800000                      #  4.2949673E+9
.LCPI0_1:
	.long	0x40000000                      #  2
.LCPI0_2:
	.long	0x5f000000                      #  9.22337203E+18
.LCPI0_3:
	.long	0x3f800000                      #  1
.LCPI0_11:
	.long	8                               # 0x8
.LCPI0_12:
	.long	16                              # 0x10
.LCPI0_13:
	.long	24                              # 0x18
.LCPI0_14:
	.long	32                              # 0x20
.LCPI0_15:
	.long	40                              # 0x28
.LCPI0_16:
	.long	48                              # 0x30
.LCPI0_17:
	.long	56                              # 0x38
.LCPI0_18:
	.long	64                              # 0x40
	.section	.rodata.cst8,"aM",@progbits,8
	.p2align	3
.LCPI0_4:
	.quad	-2147483648                     # 0xffffffff80000000
.LCPI0_5:
	.quad	2147483646                      # 0x7ffffffe
.LCPI0_6:
	.quad	2567483615                      # 0x9908b0df
	.section	.rodata.cst16,"aM",@progbits,16
	.p2align	4
.LCPI0_7:
	.quad	-2147483648                     # 0xffffffff80000000
	.quad	-2147483648                     # 0xffffffff80000000
.LCPI0_8:
	.quad	2147483646                      # 0x7ffffffe
	.quad	2147483646                      # 0x7ffffffe
.LCPI0_9:
	.quad	2567483615                      # 0x9908b0df
	.quad	2567483615                      # 0x9908b0df
	.section	.rodata.cst32,"aM",@progbits,32
	.p2align	5
.LCPI0_10:
	.long	0                               # 0x0
	.long	1                               # 0x1
	.long	2                               # 0x2
	.long	3                               # 0x3
	.long	4                               # 0x4
	.long	5                               # 0x5
	.long	6                               # 0x6
	.long	7                               # 0x7
	.section	.text._ZN6TensorIfE9init_dataERKN6tensor4initE,"axG",@progbits,_ZN6TensorIfE9init_dataERKN6tensor4initE,comdat
	.weak	_ZN6TensorIfE9init_dataERKN6tensor4initE
	.p2align	4, 0x90
	.type	_ZN6TensorIfE9init_dataERKN6tensor4initE,@function
_ZN6TensorIfE9init_dataERKN6tensor4initE: # 
.Lfunc_begin0:
	.cfi_startproc
	.cfi_personality 3, __gxx_personality_v0
	.cfi_lsda 3, .Lexception0
# %bb.0:
	pushq	%rbp
	.cfi_def_cfa_offset 16
	pushq	%r15
	.cfi_def_cfa_offset 24
	pushq	%r14
	.cfi_def_cfa_offset 32
	pushq	%r13
	.cfi_def_cfa_offset 40
	pushq	%r12
	.cfi_def_cfa_offset 48
	pushq	%rbx
	.cfi_def_cfa_offset 56
	subq	$10152, %rsp                    # imm = 0x27A8
	.cfi_def_cfa_offset 10208
	.cfi_offset %rbx, -56
	.cfi_offset %r12, -48
	.cfi_offset %r13, -40
	.cfi_offset %r14, -32
	.cfi_offset %r15, -24
	.cfi_offset %rbp, -16
	movl	32(%rdi), %edx
	testq	%rdx, %rdx
	je	.LBB0_63
# %bb.1:
	movq	%rsi, %rbx
	movq	%rdi, %r15
	leaq	8(%rdi), %r14
	shlq	$2, %rdx
	movl	$16, %esi
	movq	%r14, %rdi
	callq	posix_memalign
	movl	(%rbx), %eax
	cmpq	$3, %rax
	ja	.LBB0_14
# %bb.2:
	jmpq	*.LJTI0_0(,%rax,8)
.LBB0_15:
	movslq	32(%r15), %rax
	testq	%rax, %rax
	je	.LBB0_14
# %bb.16:
	movq	(%r14), %rcx
	cmpl	$31, %eax
	ja	.LBB0_18
# %bb.17:
	xorl	%edx, %edx
	jmp	.LBB0_26
.LBB0_29:
	leaq	168(%rsp), %rbp
	movq	%rbp, 152(%rsp)
	movl	$1634100580, 168(%rsp)          # imm = 0x61666564
	movl	$1953264993, 171(%rsp)          # imm = 0x746C7561
	movq	$7, 160(%rsp)
	movb	$0, 175(%rsp)
.Ltmp0:
	leaq	5152(%rsp), %rdi
	leaq	152(%rsp), %rsi
	callq	_ZNSt13random_device7_M_initERKNSt7__cxx1112basic_stringIcSt11char_traitsIcESaIcEEE
.Ltmp1:
# %bb.30:
	movq	152(%rsp), %rdi
	cmpq	%rbp, %rdi
	je	.LBB0_32
# %bb.31:
	callq	_ZdlPv
.LBB0_32:
.Ltmp3:
	leaq	5152(%rsp), %rdi
	callq	_ZNSt13random_device9_M_getvalEv
.Ltmp4:
# %bb.33:
	movl	%eax, %ebp
	movq	%rbp, 152(%rsp)
	movl	$2, %eax
	xorl	%ecx, %ecx
	movq	%rbp, %rdx
	.p2align	4, 0x90
.LBB0_34:                               # =>This Inner Loop Header: Depth=1
	movq	%rdx, %rsi
	shrq	$30, %rsi
	xorl	%edx, %esi
	imull	$1812433253, %esi, %edx         # imm = 0x6C078965
	addl	%eax, %edx
	decl	%edx
	movq	%rdx, 144(%rsp,%rax,8)
	cmpq	$624, %rax                      # imm = 0x270
	je	.LBB0_35
# %bb.62:                               #   in Loop: Header=BB0_34 Depth=1
	movq	%rdx, %rsi
	shrq	$30, %rsi
	xorl	%edx, %esi
	imull	$1812433253, %esi, %esi         # imm = 0x6C078965
	movzwl	%ax, %edx
	cmpl	$624, %edx                      # imm = 0x270
	movl	%eax, %edx
	cmovel	%ecx, %edx
	addl	%esi, %edx
	movq	%rdx, 152(%rsp,%rax,8)
	addq	$2, %rax
	jmp	.LBB0_34
.LBB0_3:
	movslq	32(%r15), %rax
	testq	%rax, %rax
	je	.LBB0_14
# %bb.4:
	movq	(%r14), %rcx
	cmpl	$31, %eax
	ja	.LBB0_6
# %bb.5:
	xorl	%edx, %edx
	jmp	.LBB0_13
.LBB0_27:
	movl	32(%r15), %edx
	testq	%rdx, %rdx
	je	.LBB0_14
# %bb.28:
	movq	(%r14), %rdi
	shlq	$2, %rdx
	xorl	%esi, %esi
	callq	_intel_fast_memset@PLT
	jmp	.LBB0_14
.LBB0_35:
	movslq	32(%r15), %rax
	testq	%rax, %rax
	je	.LBB0_60
# %bb.36:
	movq	%rax, 16(%rsp)                  # 8-byte Spill
	flds	.LCPI0_0(%rip)
	fstpt	(%rsp)
	callq	logl@PLT
	fstpt	32(%rsp)                        # 10-byte Folded Spill
	flds	.LCPI0_1(%rip)
	fstpt	(%rsp)
	callq	logl@PLT
	fldt	32(%rsp)                        # 10-byte Folded Reload
	fdivp	%st, %st(1)
	flds	.LCPI0_2(%rip)
	xorl	%ecx, %ecx
	fxch	%st(1)
	fucomi	%st(1), %st
	fldz
	fcmovnb	%st(2), %st
	fstp	%st(2)
	fsubp	%st, %st(1)
	fisttpll	24(%rsp)
	setae	%cl
	shlq	$63, %rcx
	xorq	24(%rsp), %rcx
	leaq	23(%rcx), %rax
	movq	%rax, %rdx
	orq	%rcx, %rdx
	shrq	$32, %rdx
	je	.LBB0_37
# %bb.38:
	xorl	%edx, %edx
	divq	%rcx
	jmp	.LBB0_39
.LBB0_6:
	movq	%rax, %rdx
	andq	$-32, %rdx
	leaq	-32(%rdx), %rsi
	movq	%rsi, %rbp
	shrq	$5, %rbp
	incq	%rbp
	testq	%rsi, %rsi
	je	.LBB0_7
# %bb.8:
	movq	%rbp, %rdi
	andq	$-2, %rdi
	negq	%rdi
	vmovdqa	.LCPI0_10(%rip), %ymm0          # ymm0 = [0,1,2,3,4,5,6,7]
	xorl	%esi, %esi
	vpbroadcastd	.LCPI0_11(%rip), %ymm1  # ymm1 = [8,8,8,8,8,8,8,8]
	vpbroadcastd	.LCPI0_12(%rip), %ymm2  # ymm2 = [16,16,16,16,16,16,16,16]
	vpbroadcastd	.LCPI0_13(%rip), %ymm3  # ymm3 = [24,24,24,24,24,24,24,24]
	vpbroadcastd	.LCPI0_14(%rip), %ymm4  # ymm4 = [32,32,32,32,32,32,32,32]
	vpbroadcastd	.LCPI0_15(%rip), %ymm5  # ymm5 = [40,40,40,40,40,40,40,40]
	vpbroadcastd	.LCPI0_16(%rip), %ymm6  # ymm6 = [48,48,48,48,48,48,48,48]
	vpbroadcastd	.LCPI0_17(%rip), %ymm7  # ymm7 = [56,56,56,56,56,56,56,56]
	vpbroadcastd	.LCPI0_18(%rip), %ymm8  # ymm8 = [64,64,64,64,64,64,64,64]
	.p2align	4, 0x90
.LBB0_9:                                # =>This Inner Loop Header: Depth=1
	vpaddd	%ymm1, %ymm0, %ymm9
	vpaddd	%ymm2, %ymm0, %ymm10
	vpaddd	%ymm3, %ymm0, %ymm11
	vcvtdq2ps	%ymm0, %ymm12
	vcvtdq2ps	%ymm9, %ymm9
	vcvtdq2ps	%ymm10, %ymm10
	vmovups	%ymm12, (%rcx,%rsi,4)
	vmovups	%ymm9, 32(%rcx,%rsi,4)
	vcvtdq2ps	%ymm11, %ymm9
	vmovups	%ymm10, 64(%rcx,%rsi,4)
	vmovups	%ymm9, 96(%rcx,%rsi,4)
	vpaddd	%ymm4, %ymm0, %ymm9
	vpaddd	%ymm5, %ymm0, %ymm10
	vpaddd	%ymm6, %ymm0, %ymm11
	vpaddd	%ymm7, %ymm0, %ymm12
	vcvtdq2ps	%ymm9, %ymm9
	vcvtdq2ps	%ymm10, %ymm10
	vcvtdq2ps	%ymm11, %ymm11
	vmovups	%ymm9, 128(%rcx,%rsi,4)
	vmovups	%ymm10, 160(%rcx,%rsi,4)
	vmovups	%ymm11, 192(%rcx,%rsi,4)
	vcvtdq2ps	%ymm12, %ymm9
	vmovups	%ymm9, 224(%rcx,%rsi,4)
	addq	$64, %rsi
	vpaddd	%ymm0, %ymm8, %ymm0
	addq	$2, %rdi
	jne	.LBB0_9
# %bb.10:
	testb	$1, %bpl
	je	.LBB0_12
.LBB0_11:
	vpbroadcastd	.LCPI0_11(%rip), %ymm1  # ymm1 = [8,8,8,8,8,8,8,8]
	vpaddd	%ymm1, %ymm0, %ymm1
	vpbroadcastd	.LCPI0_12(%rip), %ymm2  # ymm2 = [16,16,16,16,16,16,16,16]
	vpaddd	%ymm2, %ymm0, %ymm2
	vpbroadcastd	.LCPI0_13(%rip), %ymm3  # ymm3 = [24,24,24,24,24,24,24,24]
	vpaddd	%ymm3, %ymm0, %ymm3
	vcvtdq2ps	%ymm0, %ymm0
	vcvtdq2ps	%ymm1, %ymm1
	vcvtdq2ps	%ymm2, %ymm2
	vcvtdq2ps	%ymm3, %ymm3
	vmovups	%ymm0, (%rcx,%rsi,4)
	vmovups	%ymm1, 32(%rcx,%rsi,4)
	vmovups	%ymm2, 64(%rcx,%rsi,4)
	vmovups	%ymm3, 96(%rcx,%rsi,4)
.LBB0_12:
	cmpq	%rax, %rdx
	je	.LBB0_14
	.p2align	4, 0x90
.LBB0_13:                               # =>This Inner Loop Header: Depth=1
	vcvtsi2ss	%edx, %xmm13, %xmm0
	vmovss	%xmm0, (%rcx,%rdx,4)
	incq	%rdx
	cmpq	%rdx, %rax
	jne	.LBB0_13
	jmp	.LBB0_14
.LBB0_18:
	movq	%rax, %rdx
	andq	$-32, %rdx
	leaq	-32(%rdx), %rbp
	movq	%rbp, %rdi
	shrq	$5, %rdi
	incq	%rdi
	movl	%edi, %esi
	andl	$7, %esi
	cmpq	$224, %rbp
	jae	.LBB0_20
# %bb.19:
	xorl	%ebp, %ebp
	jmp	.LBB0_22
.LBB0_37:
                                        # kill: def $eax killed $eax killed $rax
	xorl	%edx, %edx
	divl	%ecx
                                        # kill: def $eax killed $eax def $rax
.LBB0_39:
	movl	$2567483615, %ebx               # imm = 0x9908B0DF
	testq	%rax, %rax
	movl	$1, %r12d
	cmovneq	%rax, %r12
	movq	(%r14), %r14
	movl	$624, %r15d                     # imm = 0x270
	xorl	%r13d, %r13d
	vpbroadcastq	.LCPI0_4(%rip), %ymm12  # ymm12 = [18446744071562067968,18446744071562067968,18446744071562067968,18446744071562067968]
	vpbroadcastq	.LCPI0_5(%rip), %ymm13  # ymm13 = [2147483646,2147483646,2147483646,2147483646]
	vpxor	%xmm14, %xmm14, %xmm14
	vpbroadcastq	.LCPI0_6(%rip), %ymm15  # ymm15 = [2567483615,2567483615,2567483615,2567483615]
	vmovdqa	.LCPI0_7(%rip), %xmm11          # xmm11 = [18446744071562067968,18446744071562067968]
	vmovd	.LCPI0_0(%rip), %xmm1           # xmm1 = mem[0],zero,zero,zero
	movq	16(%rsp), %r8                   # 8-byte Reload
	.p2align	4, 0x90
.LBB0_40:                               # =>This Loop Header: Depth=1
                                        #     Child Loop BB0_41 Depth 2
                                        #       Child Loop BB0_43 Depth 3
                                        #       Child Loop BB0_45 Depth 3
	movq	%r12, %rax
	vmovss	.LCPI0_3(%rip), %xmm0           # xmm0 = mem[0],zero,zero,zero
	vxorps	%xmm3, %xmm3, %xmm3
	jmp	.LBB0_41
	.p2align	4, 0x90
.LBB0_55:                               #   in Loop: Header=BB0_41 Depth=2
	vcvtsi2ss	%rcx, %xmm8, %xmm2
	vfmadd231ss	%xmm2, %xmm0, %xmm3     # xmm3 = (xmm0 * xmm2) + xmm3
	vmulss	%xmm1, %xmm0, %xmm0
	decq	%rax
	je	.LBB0_57
.LBB0_41:                               #   Parent Loop BB0_40 Depth=1
                                        # =>  This Loop Header: Depth=2
                                        #       Child Loop BB0_43 Depth 3
                                        #       Child Loop BB0_45 Depth 3
	cmpq	$624, %r15                      # imm = 0x270
	jb	.LBB0_52
# %bb.42:                               #   in Loop: Header=BB0_41 Depth=2
	vmovss	%xmm3, 64(%rsp)                 # 4-byte Spill
	vmovss	%xmm0, 32(%rsp)                 # 4-byte Spill
	vmovq	%rbp, %xmm2
	vpbroadcastq	%xmm2, %ymm2
	xorl	%ecx, %ecx
	.p2align	4, 0x90
.LBB0_43:                               #   Parent Loop BB0_40 Depth=1
                                        #     Parent Loop BB0_41 Depth=2
                                        # =>    This Inner Loop Header: Depth=3
	vmovdqu	160(%rsp,%rcx,8), %ymm5
	vmovdqu	192(%rsp,%rcx,8), %ymm4
	vmovdqu	224(%rsp,%rcx,8), %ymm3
	vperm2i128	$33, %ymm5, %ymm2, %ymm6 # ymm6 = ymm2[2,3],ymm5[0,1]
	vmovdqu	256(%rsp,%rcx,8), %ymm2
	vpalignr	$8, %ymm6, %ymm5, %ymm6         # ymm6 = ymm6[8,9,10,11,12,13,14,15],ymm5[0,1,2,3,4,5,6,7],ymm6[24,25,26,27,28,29,30,31],ymm5[16,17,18,19,20,21,22,23]
	vperm2i128	$33, %ymm4, %ymm5, %ymm7 # ymm7 = ymm5[2,3],ymm4[0,1]
	vpalignr	$8, %ymm7, %ymm4, %ymm7         # ymm7 = ymm7[8,9,10,11,12,13,14,15],ymm4[0,1,2,3,4,5,6,7],ymm7[24,25,26,27,28,29,30,31],ymm4[16,17,18,19,20,21,22,23]
	vperm2i128	$33, %ymm3, %ymm4, %ymm8 # ymm8 = ymm4[2,3],ymm3[0,1]
	vpalignr	$8, %ymm8, %ymm3, %ymm8         # ymm8 = ymm8[8,9,10,11,12,13,14,15],ymm3[0,1,2,3,4,5,6,7],ymm8[24,25,26,27,28,29,30,31],ymm3[16,17,18,19,20,21,22,23]
	vperm2i128	$33, %ymm2, %ymm3, %ymm9 # ymm9 = ymm3[2,3],ymm2[0,1]
	vpalignr	$8, %ymm9, %ymm2, %ymm9         # ymm9 = ymm9[8,9,10,11,12,13,14,15],ymm2[0,1,2,3,4,5,6,7],ymm9[24,25,26,27,28,29,30,31],ymm2[16,17,18,19,20,21,22,23]
	vpand	%ymm6, %ymm12, %ymm6
	vpand	%ymm7, %ymm12, %ymm7
	vpand	%ymm12, %ymm8, %ymm8
	vpand	%ymm12, %ymm9, %ymm9
	vpand	%ymm5, %ymm13, %ymm10
	vpor	%ymm6, %ymm10, %ymm6
	vpand	%ymm4, %ymm13, %ymm10
	vpor	%ymm7, %ymm10, %ymm7
	vpand	%ymm3, %ymm13, %ymm10
	vpor	%ymm8, %ymm10, %ymm8
	vpand	%ymm2, %ymm13, %ymm10
	vpor	%ymm9, %ymm10, %ymm9
	vpsrlq	$1, %ymm6, %ymm6
	vpsrlq	$1, %ymm7, %ymm7
	vpsrlq	$1, %ymm8, %ymm8
	vpsrlq	$1, %ymm9, %ymm9
	vpxor	3328(%rsp,%rcx,8), %ymm6, %ymm6
	vpxor	3360(%rsp,%rcx,8), %ymm7, %ymm7
	vpxor	3392(%rsp,%rcx,8), %ymm8, %ymm8
	vpxor	3424(%rsp,%rcx,8), %ymm9, %ymm9
	vpsllq	$63, %ymm5, %ymm5
	vpcmpgtq	%ymm5, %ymm14, %ymm5
	vpand	%ymm5, %ymm15, %ymm5
	vpxor	%ymm5, %ymm6, %ymm5
	vpsllq	$63, %ymm4, %ymm4
	vpcmpgtq	%ymm4, %ymm14, %ymm4
	vpand	%ymm4, %ymm15, %ymm4
	vpxor	%ymm4, %ymm7, %ymm4
	vpsllq	$63, %ymm3, %ymm3
	vpcmpgtq	%ymm3, %ymm14, %ymm3
	vpand	%ymm3, %ymm15, %ymm3
	vpxor	%ymm3, %ymm8, %ymm3
	vpsllq	$63, %ymm2, %ymm6
	vpcmpgtq	%ymm6, %ymm14, %ymm6
	vpand	%ymm6, %ymm15, %ymm6
	vpxor	%ymm6, %ymm9, %ymm6
	vmovdqu	%ymm5, 152(%rsp,%rcx,8)
	vmovdqu	%ymm4, 184(%rsp,%rcx,8)
	vmovdqu	%ymm3, 216(%rsp,%rcx,8)
	vmovdqu	%ymm6, 248(%rsp,%rcx,8)
	addq	$16, %rcx
	cmpq	$224, %rcx
	jne	.LBB0_43
# %bb.44:                               #   in Loop: Header=BB0_41 Depth=2
	vextracti128	$1, %ymm2, %xmm2
	vpextrq	$1, %xmm2, %rdx
	andq	$-2147483648, %rdx              # imm = 0x80000000
	movq	1952(%rsp), %rsi
	movq	1960(%rsp), %rcx
	movl	%esi, %edi
	andl	$2147483646, %edi               # imm = 0x7FFFFFFE
	orq	%rdx, %rdi
	shrq	%rdi
	xorq	5120(%rsp), %rdi
	movl	%esi, %edx
	andl	$1, %edx
	negl	%edx
	andl	%ebx, %edx
	xorq	%rdi, %rdx
	movq	%rdx, 1944(%rsp)
	andq	$-2147483648, %rsi              # imm = 0x80000000
	movl	%ecx, %edx
	andl	$2147483646, %edx               # imm = 0x7FFFFFFE
	orq	%rsi, %rdx
	shrq	%rdx
	xorq	5128(%rsp), %rdx
	movl	%ecx, %esi
	andl	$1, %esi
	negl	%esi
	andl	%ebx, %esi
	xorq	%rdx, %rsi
	movq	%rsi, 1952(%rsp)
	andq	$-2147483648, %rcx              # imm = 0x80000000
	movq	1968(%rsp), %rdx
	movl	%edx, %esi
	vmovq	%rdx, %xmm2
                                        # kill: def $edx killed $edx killed $rdx def $rdx
	andl	$2147483646, %edx               # imm = 0x7FFFFFFE
	orq	%rcx, %rdx
	shrq	%rdx
	xorq	5136(%rsp), %rdx
	andl	$1, %esi
	negl	%esi
	andl	%ebx, %esi
	xorq	%rdx, %rsi
	movq	%rsi, 1960(%rsp)
	vpbroadcastq	%xmm2, %xmm2
	xorl	%ecx, %ecx
	vmovdqa	.LCPI0_8(%rip), %xmm7           # xmm7 = [2147483646,2147483646]
	vpxor	%xmm1, %xmm1, %xmm1
	vmovdqa	.LCPI0_9(%rip), %xmm0           # xmm0 = [2567483615,2567483615]
	.p2align	4, 0x90
.LBB0_45:                               #   Parent Loop BB0_40 Depth=1
                                        #     Parent Loop BB0_41 Depth=2
                                        # =>    This Inner Loop Header: Depth=3
	vmovdqu	1976(%rsp,%rcx,8), %xmm3
	vmovdqu	1992(%rsp,%rcx,8), %xmm4
	vpalignr	$8, %xmm2, %xmm3, %xmm5         # xmm5 = xmm2[8,9,10,11,12,13,14,15],xmm3[0,1,2,3,4,5,6,7]
	vmovdqu	2008(%rsp,%rcx,8), %xmm2
	vpand	%xmm5, %xmm11, %xmm5
	vpand	%xmm7, %xmm3, %xmm6
	vpor	%xmm5, %xmm6, %xmm5
	vpsrlq	$1, %xmm5, %xmm5
	vpxor	152(%rsp,%rcx,8), %xmm5, %xmm5
	vpsllq	$63, %xmm3, %xmm6
	vpcmpgtq	%xmm6, %xmm1, %xmm6
	vpand	%xmm0, %xmm6, %xmm6
	vpxor	%xmm6, %xmm5, %xmm5
	vmovdqu	%xmm5, 1968(%rsp,%rcx,8)
	vpalignr	$8, %xmm3, %xmm4, %xmm3         # xmm3 = xmm3[8,9,10,11,12,13,14,15],xmm4[0,1,2,3,4,5,6,7]
	vpand	%xmm3, %xmm11, %xmm3
	vpand	%xmm7, %xmm4, %xmm5
	vpor	%xmm3, %xmm5, %xmm3
	vpsrlq	$1, %xmm3, %xmm3
	vpxor	168(%rsp,%rcx,8), %xmm3, %xmm3
	vpsllq	$63, %xmm4, %xmm5
	vpcmpgtq	%xmm5, %xmm1, %xmm5
	vpand	%xmm0, %xmm5, %xmm5
	vpxor	%xmm5, %xmm3, %xmm3
	vmovdqu	%xmm3, 1984(%rsp,%rcx,8)
	vpalignr	$8, %xmm4, %xmm2, %xmm3         # xmm3 = xmm4[8,9,10,11,12,13,14,15],xmm2[0,1,2,3,4,5,6,7]
	vpand	%xmm3, %xmm11, %xmm3
	vpand	%xmm7, %xmm2, %xmm4
	vpor	%xmm3, %xmm4, %xmm3
	vpsrlq	$1, %xmm3, %xmm3
	vpxor	184(%rsp,%rcx,8), %xmm3, %xmm3
	vpsllq	$63, %xmm2, %xmm4
	vpcmpgtq	%xmm4, %xmm1, %xmm4
	vpand	%xmm0, %xmm4, %xmm4
	vpxor	%xmm4, %xmm3, %xmm3
	vmovdqu	%xmm3, 2000(%rsp,%rcx,8)
	addq	$6, %rcx
	cmpq	$396, %rcx                      # imm = 0x18C
	jne	.LBB0_45
# %bb.46:                               #   in Loop: Header=BB0_41 Depth=2
	movq	5136(%rsp), %rcx
	andq	$-2147483648, %rcx              # imm = 0x80000000
	movq	152(%rsp), %rbp
	movl	%ebp, %edx
	andl	$2147483646, %edx               # imm = 0x7FFFFFFE
	orq	%rcx, %rdx
	shrq	%rdx
	xorq	3320(%rsp), %rdx
	movl	%ebp, %ecx
	andl	$1, %ecx
	negl	%ecx
	movl	$2567483615, %esi               # imm = 0x9908B0DF
	andl	%ecx, %esi
	xorq	%rdx, %rsi
	movq	%rsi, 5136(%rsp)
	movl	$1, %r15d
	movq	%rbp, %rcx
	vmovd	.LCPI0_0(%rip), %xmm1           # xmm1 = mem[0],zero,zero,zero
	vmovss	32(%rsp), %xmm0                 # 4-byte Reload
                                        # xmm0 = mem[0],zero,zero,zero
	vmovss	64(%rsp), %xmm3                 # 4-byte Reload
                                        # xmm3 = mem[0],zero,zero,zero
	jmp	.LBB0_53
	.p2align	4, 0x90
.LBB0_52:                               #   in Loop: Header=BB0_41 Depth=2
	movq	152(%rsp,%r15,8), %rcx
	incq	%r15
.LBB0_53:                               #   in Loop: Header=BB0_41 Depth=2
	movq	%rcx, %rdx
	shrq	$11, %rdx
	movl	%edx, %edx
	xorq	%rcx, %rdx
	movl	%edx, %ecx
	andl	$20601005, %ecx                 # imm = 0x13A58AD
	shlq	$7, %rcx
	xorq	%rdx, %rcx
	movl	%ecx, %edx
	andl	$122764, %edx                   # imm = 0x1DF8C
	shlq	$15, %rdx
	xorq	%rcx, %rdx
	movq	%rdx, %rcx
	shrq	$18, %rcx
	xorq	%rdx, %rcx
	jns	.LBB0_55
# %bb.54:                               #   in Loop: Header=BB0_41 Depth=2
	movq	%rcx, %rdx
	shrq	%rdx
	andl	$1, %ecx
	orq	%rdx, %rcx
	vcvtsi2ss	%rcx, %xmm8, %xmm2
	vaddss	%xmm2, %xmm2, %xmm2
	vfmadd231ss	%xmm2, %xmm0, %xmm3     # xmm3 = (xmm0 * xmm2) + xmm3
	vmulss	%xmm1, %xmm0, %xmm0
	decq	%rax
	jne	.LBB0_41
.LBB0_57:                               #   in Loop: Header=BB0_40 Depth=1
	vdivss	%xmm0, %xmm3, %xmm0
	vucomiss	.LCPI0_3(%rip), %xmm0
	jae	.LBB0_58
# %bb.59:                               #   in Loop: Header=BB0_40 Depth=1
	vmovss	%xmm0, (%r14,%r13,4)
	incq	%r13
	cmpq	%r8, %r13
	jne	.LBB0_40
	jmp	.LBB0_60
.LBB0_58:                               #   in Loop: Header=BB0_40 Depth=1
	vxorps	%xmm1, %xmm1, %xmm1
	vmovss	.LCPI0_3(%rip), %xmm0           # xmm0 = mem[0],zero,zero,zero
	vmovdqu	%ymm12, 32(%rsp)                # 32-byte Spill
	vmovdqu	%ymm13, 64(%rsp)                # 32-byte Spill
	vmovdqu	%ymm15, 96(%rsp)                # 32-byte Spill
	vzeroupper
	callq	nextafterf
	vmovss	.LCPI0_0(%rip), %xmm1           # xmm1 = mem[0],zero,zero,zero
	vmovdqa	.LCPI0_7(%rip), %xmm11          # xmm11 = [18446744071562067968,18446744071562067968]
	vmovdqu	96(%rsp), %ymm15                # 32-byte Reload
	vpxor	%xmm14, %xmm14, %xmm14
	vmovdqu	64(%rsp), %ymm13                # 32-byte Reload
	vmovdqu	32(%rsp), %ymm12                # 32-byte Reload
	movq	16(%rsp), %r8                   # 8-byte Reload
	vmovss	%xmm0, (%r14,%r13,4)
	incq	%r13
	cmpq	%r8, %r13
	jne	.LBB0_40
.LBB0_60:
.Ltmp9:
	leaq	5152(%rsp), %rdi
	vzeroupper
	callq	_ZNSt13random_device7_M_finiEv
.Ltmp10:
	jmp	.LBB0_14
.LBB0_20:
	leaq	992(%rcx), %rbx
	andq	$-8, %rdi
	negq	%rdi
	xorl	%ebp, %ebp
	vbroadcastss	.LCPI0_3(%rip), %ymm0   # ymm0 = [1.0E+0,1.0E+0,1.0E+0,1.0E+0,1.0E+0,1.0E+0,1.0E+0,1.0E+0]
	.p2align	4, 0x90
.LBB0_21:                               # =>This Inner Loop Header: Depth=1
	vmovups	%ymm0, -992(%rbx,%rbp,4)
	vmovups	%ymm0, -960(%rbx,%rbp,4)
	vmovups	%ymm0, -928(%rbx,%rbp,4)
	vmovups	%ymm0, -896(%rbx,%rbp,4)
	vmovups	%ymm0, -864(%rbx,%rbp,4)
	vmovups	%ymm0, -832(%rbx,%rbp,4)
	vmovups	%ymm0, -800(%rbx,%rbp,4)
	vmovups	%ymm0, -768(%rbx,%rbp,4)
	vmovups	%ymm0, -736(%rbx,%rbp,4)
	vmovups	%ymm0, -704(%rbx,%rbp,4)
	vmovups	%ymm0, -672(%rbx,%rbp,4)
	vmovups	%ymm0, -640(%rbx,%rbp,4)
	vmovups	%ymm0, -608(%rbx,%rbp,4)
	vmovups	%ymm0, -576(%rbx,%rbp,4)
	vmovups	%ymm0, -544(%rbx,%rbp,4)
	vmovups	%ymm0, -512(%rbx,%rbp,4)
	vmovups	%ymm0, -480(%rbx,%rbp,4)
	vmovups	%ymm0, -448(%rbx,%rbp,4)
	vmovups	%ymm0, -416(%rbx,%rbp,4)
	vmovups	%ymm0, -384(%rbx,%rbp,4)
	vmovups	%ymm0, -352(%rbx,%rbp,4)
	vmovups	%ymm0, -320(%rbx,%rbp,4)
	vmovups	%ymm0, -288(%rbx,%rbp,4)
	vmovups	%ymm0, -256(%rbx,%rbp,4)
	vmovups	%ymm0, -224(%rbx,%rbp,4)
	vmovups	%ymm0, -192(%rbx,%rbp,4)
	vmovups	%ymm0, -160(%rbx,%rbp,4)
	vmovups	%ymm0, -128(%rbx,%rbp,4)
	vmovups	%ymm0, -96(%rbx,%rbp,4)
	vmovups	%ymm0, -64(%rbx,%rbp,4)
	vmovups	%ymm0, -32(%rbx,%rbp,4)
	vmovups	%ymm0, (%rbx,%rbp,4)
	addq	$256, %rbp                      # imm = 0x100
	addq	$8, %rdi
	jne	.LBB0_21
.LBB0_22:
	testq	%rsi, %rsi
	je	.LBB0_25
# %bb.23:
	leaq	(%rcx,%rbp,4), %rdi
	addq	$96, %rdi
	shlq	$7, %rsi
	xorl	%ebp, %ebp
	vbroadcastss	.LCPI0_3(%rip), %ymm0   # ymm0 = [1.0E+0,1.0E+0,1.0E+0,1.0E+0,1.0E+0,1.0E+0,1.0E+0,1.0E+0]
	.p2align	4, 0x90
.LBB0_24:                               # =>This Inner Loop Header: Depth=1
	vmovups	%ymm0, -96(%rdi,%rbp)
	vmovups	%ymm0, -64(%rdi,%rbp)
	vmovups	%ymm0, -32(%rdi,%rbp)
	vmovups	%ymm0, (%rdi,%rbp)
	subq	$-128, %rbp
	cmpq	%rbp, %rsi
	jne	.LBB0_24
.LBB0_25:
	cmpq	%rax, %rdx
	je	.LBB0_14
	.p2align	4, 0x90
.LBB0_26:                               # =>This Inner Loop Header: Depth=1
	movl	$1065353216, (%rcx,%rdx,4)      # imm = 0x3F800000
	incq	%rdx
	cmpq	%rdx, %rax
	jne	.LBB0_26
.LBB0_14:
	addq	$10152, %rsp                    # imm = 0x27A8
	.cfi_def_cfa_offset 56
	popq	%rbx
	.cfi_def_cfa_offset 48
	popq	%r12
	.cfi_def_cfa_offset 40
	popq	%r13
	.cfi_def_cfa_offset 32
	popq	%r14
	.cfi_def_cfa_offset 24
	popq	%r15
	.cfi_def_cfa_offset 16
	popq	%rbp
	.cfi_def_cfa_offset 8
	vzeroupper
	retq
.LBB0_7:
	.cfi_def_cfa_offset 10208
	vmovdqa	.LCPI0_10(%rip), %ymm0          # ymm0 = [0,1,2,3,4,5,6,7]
	xorl	%esi, %esi
	testb	$1, %bpl
	jne	.LBB0_11
	jmp	.LBB0_12
.LBB0_63:
	movl	$.L.str, %edi
	movl	$.L.str.1, %esi
	movl	$.L__PRETTY_FUNCTION__._ZN6TensorIfE9init_dataERKN6tensor4initE, %ecx
	movl	$16, %edx
	callq	__assert_fail
.LBB0_47:
.Ltmp11:
	movq	%rax, %rdi
	callq	__clang_call_terminate
.LBB0_51:
.Ltmp5:
	movq	%rax, %rbx
.Ltmp6:
	leaq	5152(%rsp), %rdi
	callq	_ZNSt13random_device7_M_finiEv
.Ltmp7:
	jmp	.LBB0_50
.LBB0_61:
.Ltmp8:
	movq	%rax, %rdi
	callq	__clang_call_terminate
.LBB0_48:
.Ltmp2:
	movq	%rax, %rbx
	movq	152(%rsp), %rdi
	cmpq	%rbp, %rdi
	je	.LBB0_50
# %bb.49:
	callq	_ZdlPv
.LBB0_50:
	movq	%rbx, %rdi
	callq	_Unwind_Resume@PLT
.Lfunc_end0:
	.size	_ZN6TensorIfE9init_dataERKN6tensor4initE, .Lfunc_end0-_ZN6TensorIfE9init_dataERKN6tensor4initE
	.cfi_endproc
	.section	.rodata._ZN6TensorIfE9init_dataERKN6tensor4initE,"aG",@progbits,_ZN6TensorIfE9init_dataERKN6tensor4initE,comdat
	.p2align	3
.LJTI0_0:
	.quad	.LBB0_15
	.quad	.LBB0_27
	.quad	.LBB0_29
	.quad	.LBB0_3
	.section	.gcc_except_table._ZN6TensorIfE9init_dataERKN6tensor4initE,"aG",@progbits,_ZN6TensorIfE9init_dataERKN6tensor4initE,comdat
	.p2align	2
GCC_except_table0:
.Lexception0:
	.byte	255                             # @LPStart Encoding = omit
	.byte	3                               # @TType Encoding = udata4
	.uleb128 .Lttbase0-.Lttbaseref0
.Lttbaseref0:
	.byte	1                               # Call site Encoding = uleb128
	.uleb128 .Lcst_end0-.Lcst_begin0
.Lcst_begin0:
	.uleb128 .Ltmp0-.Lfunc_begin0           # >> Call Site 1 <<
	.uleb128 .Ltmp1-.Ltmp0                  #   Call between .Ltmp0 and .Ltmp1
	.uleb128 .Ltmp2-.Lfunc_begin0           #     jumps to .Ltmp2
	.byte	0                               #   On action: cleanup
	.uleb128 .Ltmp3-.Lfunc_begin0           # >> Call Site 2 <<
	.uleb128 .Ltmp4-.Ltmp3                  #   Call between .Ltmp3 and .Ltmp4
	.uleb128 .Ltmp5-.Lfunc_begin0           #     jumps to .Ltmp5
	.byte	0                               #   On action: cleanup
	.uleb128 .Ltmp4-.Lfunc_begin0           # >> Call Site 3 <<
	.uleb128 .Ltmp9-.Ltmp4                  #   Call between .Ltmp4 and .Ltmp9
	.byte	0                               #     has no landing pad
	.byte	0                               #   On action: cleanup
	.uleb128 .Ltmp9-.Lfunc_begin0           # >> Call Site 4 <<
	.uleb128 .Ltmp10-.Ltmp9                 #   Call between .Ltmp9 and .Ltmp10
	.uleb128 .Ltmp11-.Lfunc_begin0          #     jumps to .Ltmp11
	.byte	1                               #   On action: 1
	.uleb128 .Ltmp6-.Lfunc_begin0           # >> Call Site 5 <<
	.uleb128 .Ltmp7-.Ltmp6                  #   Call between .Ltmp6 and .Ltmp7
	.uleb128 .Ltmp8-.Lfunc_begin0           #     jumps to .Ltmp8
	.byte	1                               #   On action: 1
	.uleb128 .Ltmp7-.Lfunc_begin0           # >> Call Site 6 <<
	.uleb128 .Lfunc_end0-.Ltmp7             #   Call between .Ltmp7 and .Lfunc_end0
	.byte	0                               #     has no landing pad
	.byte	0                               #   On action: cleanup
.Lcst_end0:
	.byte	1                               # >> Action Record 1 <<
                                        #   Catch TypeInfo 1
	.byte	0                               #   No further actions
	.p2align	2
                                        # >> Catch TypeInfos <<
	.long	0                               # TypeInfo 1
.Lttbase0:
	.p2align	2
                                        # -- End function
	.section	.text._ZNK6TensorIfE14convolveThreadERS0_RKS0_jjjjjjjjjjjjjjjj,"axG",@progbits,_ZNK6TensorIfE14convolveThreadERS0_RKS0_jjjjjjjjjjjjjjjj,comdat
	.weak	_ZNK6TensorIfE14convolveThreadERS0_RKS0_jjjjjjjjjjjjjjjj # -- Begin function _ZNK6TensorIfE14convolveThreadERS0_RKS0_jjjjjjjjjjjjjjjj
	.p2align	4, 0x90
	.type	_ZNK6TensorIfE14convolveThreadERS0_RKS0_jjjjjjjjjjjjjjjj,@function
_ZNK6TensorIfE14convolveThreadERS0_RKS0_jjjjjjjjjjjjjjjj: # 
	.cfi_startproc
# %bb.0:
	pushq	%rbp
	.cfi_def_cfa_offset 16
	pushq	%r15
	.cfi_def_cfa_offset 24
	pushq	%r14
	.cfi_def_cfa_offset 32
	pushq	%r13
	.cfi_def_cfa_offset 40
	pushq	%r12
	.cfi_def_cfa_offset 48
	pushq	%rbx
	.cfi_def_cfa_offset 56
	subq	$104, %rsp
	.cfi_def_cfa_offset 160
	.cfi_offset %rbx, -56
	.cfi_offset %r12, -48
	.cfi_offset %r13, -40
	.cfi_offset %r14, -32
	.cfi_offset %r15, -24
	.cfi_offset %rbp, -16
	movl	%r8d, 44(%rsp)                  # 4-byte Spill
	movl	%ecx, 36(%rsp)                  # 4-byte Spill
	movq	%rdx, 56(%rsp)                  # 8-byte Spill
	movq	%rsi, 48(%rsp)                  # 8-byte Spill
	movq	%rdi, 96(%rsp)                  # 8-byte Spill
	cmpl	160(%rsp), %r9d
	jae	.LBB1_22
# %bb.1:
	movl	256(%rsp), %ecx
	movl	232(%rsp), %edx
	movq	96(%rsp), %rax                  # 8-byte Reload
	movl	20(%rax), %esi
	movl	%esi, 68(%rsp)                  # 4-byte Spill
	movl	24(%rax), %eax
	movl	%eax, 80(%rsp)                  # 4-byte Spill
	imull	36(%rsp), %edx                  # 4-byte Folded Reload
	subl	44(%rsp), %edx                  # 4-byte Folded Reload
	movl	%edx, 64(%rsp)                  # 4-byte Spill
	jmp	.LBB1_2
	.p2align	4, 0x90
.LBB1_21:                               #   in Loop: Header=BB1_2 Depth=1
	movl	20(%rsp), %r9d                  # 4-byte Reload
	incl	%r9d
	cmpl	160(%rsp), %r9d
	je	.LBB1_22
.LBB1_2:                                # =>This Loop Header: Depth=1
                                        #     Child Loop BB1_4 Depth 2
                                        #       Child Loop BB1_6 Depth 3
                                        #         Child Loop BB1_8 Depth 4
                                        #           Child Loop BB1_10 Depth 5
                                        #             Child Loop BB1_13 Depth 6
                                        #               Child Loop BB1_15 Depth 7
                                        #               Child Loop BB1_23 Depth 7
	movl	%r9d, 20(%rsp)                  # 4-byte Spill
	movl	168(%rsp), %eax
	cmpl	176(%rsp), %eax
	jae	.LBB1_21
# %bb.3:                                #   in Loop: Header=BB1_2 Depth=1
	movl	%eax, %edx
	jmp	.LBB1_4
	.p2align	4, 0x90
.LBB1_20:                               #   in Loop: Header=BB1_4 Depth=2
	movl	16(%rsp), %edx                  # 4-byte Reload
	incl	%edx
	cmpl	176(%rsp), %edx
	je	.LBB1_21
.LBB1_4:                                #   Parent Loop BB1_2 Depth=1
                                        # =>  This Loop Header: Depth=2
                                        #       Child Loop BB1_6 Depth 3
                                        #         Child Loop BB1_8 Depth 4
                                        #           Child Loop BB1_10 Depth 5
                                        #             Child Loop BB1_13 Depth 6
                                        #               Child Loop BB1_15 Depth 7
                                        #               Child Loop BB1_23 Depth 7
	movl	%edx, 16(%rsp)                  # 4-byte Spill
	movl	184(%rsp), %eax
	cmpl	192(%rsp), %eax
	jae	.LBB1_20
# %bb.5:                                #   in Loop: Header=BB1_4 Depth=2
	movl	%eax, %edx
	jmp	.LBB1_6
	.p2align	4, 0x90
.LBB1_19:                               #   in Loop: Header=BB1_6 Depth=3
	movl	24(%rsp), %edx                  # 4-byte Reload
	incl	%edx
	cmpl	192(%rsp), %edx
	je	.LBB1_20
.LBB1_6:                                #   Parent Loop BB1_2 Depth=1
                                        #     Parent Loop BB1_4 Depth=2
                                        # =>    This Loop Header: Depth=3
                                        #         Child Loop BB1_8 Depth 4
                                        #           Child Loop BB1_10 Depth 5
                                        #             Child Loop BB1_13 Depth 6
                                        #               Child Loop BB1_15 Depth 7
                                        #               Child Loop BB1_23 Depth 7
	movl	%edx, 24(%rsp)                  # 4-byte Spill
	movl	200(%rsp), %eax
	cmpl	208(%rsp), %eax
	jae	.LBB1_19
# %bb.7:                                #   in Loop: Header=BB1_6 Depth=3
	movl	%eax, %edx
	jmp	.LBB1_8
	.p2align	4, 0x90
.LBB1_18:                               #   in Loop: Header=BB1_8 Depth=4
	movl	28(%rsp), %edx                  # 4-byte Reload
	incl	%edx
	cmpl	208(%rsp), %edx
	je	.LBB1_19
.LBB1_8:                                #   Parent Loop BB1_2 Depth=1
                                        #     Parent Loop BB1_4 Depth=2
                                        #       Parent Loop BB1_6 Depth=3
                                        # =>      This Loop Header: Depth=4
                                        #           Child Loop BB1_10 Depth 5
                                        #             Child Loop BB1_13 Depth 6
                                        #               Child Loop BB1_15 Depth 7
                                        #               Child Loop BB1_23 Depth 7
	movl	%edx, 28(%rsp)                  # 4-byte Spill
	movl	216(%rsp), %eax
	cmpl	224(%rsp), %eax
	jae	.LBB1_18
# %bb.9:                                #   in Loop: Header=BB1_8 Depth=4
	movl	28(%rsp), %eax                  # 4-byte Reload
	imull	36(%rsp), %eax                  # 4-byte Folded Reload
	subl	44(%rsp), %eax                  # 4-byte Folded Reload
	movl	%eax, 72(%rsp)                  # 4-byte Spill
	movl	216(%rsp), %eax
	jmp	.LBB1_10
	.p2align	4, 0x90
.LBB1_17:                               #   in Loop: Header=BB1_10 Depth=5
	movl	32(%rsp), %eax                  # 4-byte Reload
	incl	%eax
	cmpl	224(%rsp), %eax
	je	.LBB1_18
.LBB1_10:                               #   Parent Loop BB1_2 Depth=1
                                        #     Parent Loop BB1_4 Depth=2
                                        #       Parent Loop BB1_6 Depth=3
                                        #         Parent Loop BB1_8 Depth=4
                                        # =>        This Loop Header: Depth=5
                                        #             Child Loop BB1_13 Depth 6
                                        #               Child Loop BB1_15 Depth 7
                                        #               Child Loop BB1_23 Depth 7
	movl	%eax, 32(%rsp)                  # 4-byte Spill
	movl	232(%rsp), %eax
	cmpl	240(%rsp), %eax
	jae	.LBB1_17
# %bb.11:                               #   in Loop: Header=BB1_10 Depth=5
	movl	72(%rsp), %eax                  # 4-byte Reload
	addl	32(%rsp), %eax                  # 4-byte Folded Reload
	setns	15(%rsp)                        # 1-byte Folded Spill
	movl	%eax, 76(%rsp)                  # 4-byte Spill
	cmpl	68(%rsp), %eax                  # 4-byte Folded Reload
	setb	%al
	cmpl	%ecx, 248(%rsp)
	jae	.LBB1_17
# %bb.12:                               #   in Loop: Header=BB1_10 Depth=5
	andb	%al, 15(%rsp)                   # 1-byte Folded Spill
	movl	64(%rsp), %eax                  # 4-byte Reload
	movl	%eax, 40(%rsp)                  # 4-byte Spill
	movl	232(%rsp), %ebx
	jmp	.LBB1_13
	.p2align	4, 0x90
.LBB1_16:                               #   in Loop: Header=BB1_13 Depth=6
	incl	%ebx
	movl	40(%rsp), %eax                  # 4-byte Reload
	addl	36(%rsp), %eax                  # 4-byte Folded Reload
	movl	%eax, 40(%rsp)                  # 4-byte Spill
	cmpl	240(%rsp), %ebx
	je	.LBB1_17
.LBB1_13:                               #   Parent Loop BB1_2 Depth=1
                                        #     Parent Loop BB1_4 Depth=2
                                        #       Parent Loop BB1_6 Depth=3
                                        #         Parent Loop BB1_8 Depth=4
                                        #           Parent Loop BB1_10 Depth=5
                                        # =>          This Loop Header: Depth=6
                                        #               Child Loop BB1_15 Depth 7
                                        #               Child Loop BB1_23 Depth 7
	movl	248(%rsp), %r12d
	cmpb	$0, 15(%rsp)                    # 1-byte Folded Reload
	movq	56(%rsp), %r14                  # 8-byte Reload
	movq	48(%rsp), %r13                  # 8-byte Reload
	movl	16(%rsp), %ebp                  # 4-byte Reload
	movl	%ebx, 84(%rsp)                  # 4-byte Spill
	jne	.LBB1_23
# %bb.14:                               #   in Loop: Header=BB1_13 Depth=6
	movl	%r12d, %r15d
	.p2align	4, 0x90
.LBB1_15:                               #   Parent Loop BB1_2 Depth=1
                                        #     Parent Loop BB1_4 Depth=2
                                        #       Parent Loop BB1_6 Depth=3
                                        #         Parent Loop BB1_8 Depth=4
                                        #           Parent Loop BB1_10 Depth=5
                                        #             Parent Loop BB1_13 Depth=6
                                        # =>            This Inner Loop Header: Depth=7
	movq	(%r14), %rax
	movq	%r14, %rdi
	movl	%ebp, %esi
	movl	24(%rsp), %edx                  # 4-byte Reload
	movl	32(%rsp), %ecx                  # 4-byte Reload
	movl	%r15d, %r8d
	callq	*(%rax)
	movq	(%r13), %rax
	movq	%r13, %rdi
	movl	20(%rsp), %esi                  # 4-byte Reload
	movl	%ebp, %edx
	movl	28(%rsp), %ecx                  # 4-byte Reload
	movl	%ebx, %r8d
	callq	*8(%rax)
	movl	256(%rsp), %ecx
	incl	%r15d
	cmpl	%r15d, %ecx
	jne	.LBB1_15
	jmp	.LBB1_16
	.p2align	4, 0x90
.LBB1_24:                               #   in Loop: Header=BB1_23 Depth=7
	movl	20(%rsp), %r15d                 # 4-byte Reload
	movq	56(%rsp), %rbx                  # 8-byte Reload
	movq	48(%rsp), %r14                  # 8-byte Reload
	movl	24(%rsp), %ebp                  # 4-byte Reload
	movl	16(%rsp), %r13d                 # 4-byte Reload
.LBB1_27:                               #   in Loop: Header=BB1_23 Depth=7
	vmovss	%xmm0, 92(%rsp)                 # 4-byte Spill
	movq	(%rbx), %rax
	movq	%rbx, %rdi
	movl	%r13d, %esi
	movl	%ebp, %edx
	movl	32(%rsp), %ecx                  # 4-byte Reload
	movl	%r12d, %r8d
	callq	*(%rax)
	vmovss	(%rax), %xmm0                   # xmm0 = mem[0],zero,zero,zero
	vmovss	%xmm0, 88(%rsp)                 # 4-byte Spill
	movq	(%r14), %rax
	movq	%r14, %rdi
	movl	%r15d, %esi
	movl	%r13d, %edx
	movl	28(%rsp), %ecx                  # 4-byte Reload
	movl	84(%rsp), %ebx                  # 4-byte Reload
	movl	%ebx, %r8d
	callq	*8(%rax)
	vmovss	92(%rsp), %xmm0                 # 4-byte Reload
                                        # xmm0 = mem[0],zero,zero,zero
	vmovss	88(%rsp), %xmm1                 # 4-byte Reload
                                        # xmm1 = mem[0],zero,zero,zero
	vfmadd213ss	(%rax), %xmm0, %xmm1    # xmm1 = (xmm0 * xmm1) + mem
	vmovss	%xmm1, (%rax)
	incl	%r12d
	movl	256(%rsp), %ecx
	cmpl	%r12d, %ecx
	je	.LBB1_16
.LBB1_23:                               #   Parent Loop BB1_2 Depth=1
                                        #     Parent Loop BB1_4 Depth=2
                                        #       Parent Loop BB1_6 Depth=3
                                        #         Parent Loop BB1_8 Depth=4
                                        #           Parent Loop BB1_10 Depth=5
                                        #             Parent Loop BB1_13 Depth=6
                                        # =>            This Inner Loop Header: Depth=7
	movl	40(%rsp), %r8d                  # 4-byte Reload
	addl	%r12d, %r8d
	vxorps	%xmm0, %xmm0, %xmm0
	js	.LBB1_24
# %bb.25:                               #   in Loop: Header=BB1_23 Depth=7
	cmpl	80(%rsp), %r8d                  # 4-byte Folded Reload
	movl	20(%rsp), %r15d                 # 4-byte Reload
	movq	56(%rsp), %rbx                  # 8-byte Reload
	movq	48(%rsp), %r14                  # 8-byte Reload
	movl	24(%rsp), %ebp                  # 4-byte Reload
	movl	16(%rsp), %r13d                 # 4-byte Reload
	jae	.LBB1_27
# %bb.26:                               #   in Loop: Header=BB1_23 Depth=7
	movq	96(%rsp), %rdi                  # 8-byte Reload
	movq	(%rdi), %rax
	movl	%r15d, %esi
	movl	%ebp, %edx
	movl	76(%rsp), %ecx                  # 4-byte Reload
	callq	*(%rax)
	vmovss	(%rax), %xmm0                   # xmm0 = mem[0],zero,zero,zero
	jmp	.LBB1_27
.LBB1_22:
	addq	$104, %rsp
	.cfi_def_cfa_offset 56
	popq	%rbx
	.cfi_def_cfa_offset 48
	popq	%r12
	.cfi_def_cfa_offset 40
	popq	%r13
	.cfi_def_cfa_offset 32
	popq	%r14
	.cfi_def_cfa_offset 24
	popq	%r15
	.cfi_def_cfa_offset 16
	popq	%rbp
	.cfi_def_cfa_offset 8
	retq
.Lfunc_end1:
	.size	_ZNK6TensorIfE14convolveThreadERS0_RKS0_jjjjjjjjjjjjjjjj, .Lfunc_end1-_ZNK6TensorIfE14convolveThreadERS0_RKS0_jjjjjjjjjjjjjjjj
	.cfi_endproc
                                        # -- End function
	.section	.text._ZNK6TensorIfE3_atERKjjS2_,"axG",@progbits,_ZNK6TensorIfE3_atERKjjS2_,comdat
	.weak	_ZNK6TensorIfE3_atERKjjS2_      # -- Begin function _ZNK6TensorIfE3_atERKjjS2_
	.p2align	4, 0x90
	.type	_ZNK6TensorIfE3_atERKjjS2_,@function
_ZNK6TensorIfE3_atERKjjS2_:             # 
	.cfi_startproc
# %bb.0:
	movl	24(%rdi), %eax
	imull	(%rsi), %eax
	addl	%edx, %eax
	imull	28(%rdi), %eax
	addl	(%rcx), %eax
	shlq	$2, %rax
	addq	8(%rdi), %rax
	retq
.Lfunc_end2:
	.size	_ZNK6TensorIfE3_atERKjjS2_, .Lfunc_end2-_ZNK6TensorIfE3_atERKjjS2_
	.cfi_endproc
                                        # -- End function
	.section	.text._ZN6TensorIfE3_atERKjjS2_,"axG",@progbits,_ZN6TensorIfE3_atERKjjS2_,comdat
	.weak	_ZN6TensorIfE3_atERKjjS2_       # -- Begin function _ZN6TensorIfE3_atERKjjS2_
	.p2align	4, 0x90
	.type	_ZN6TensorIfE3_atERKjjS2_,@function
_ZN6TensorIfE3_atERKjjS2_:              # 
	.cfi_startproc
# %bb.0:
	movl	24(%rdi), %eax
	imull	(%rsi), %eax
	addl	%edx, %eax
	imull	28(%rdi), %eax
	addl	(%rcx), %eax
	shlq	$2, %rax
	addq	8(%rdi), %rax
	retq
.Lfunc_end3:
	.size	_ZN6TensorIfE3_atERKjjS2_, .Lfunc_end3-_ZN6TensorIfE3_atERKjjS2_
	.cfi_endproc
                                        # -- End function
	.section	.text._ZNK6TensorIfE3_atEjjjj,"axG",@progbits,_ZNK6TensorIfE3_atEjjjj,comdat
	.weak	_ZNK6TensorIfE3_atEjjjj         # -- Begin function _ZNK6TensorIfE3_atEjjjj
	.p2align	4, 0x90
	.type	_ZNK6TensorIfE3_atEjjjj,@function
_ZNK6TensorIfE3_atEjjjj:                # 
	.cfi_startproc
# %bb.0:
	pushq	%rbp
	.cfi_def_cfa_offset 16
	pushq	%r15
	.cfi_def_cfa_offset 24
	pushq	%r14
	.cfi_def_cfa_offset 32
	pushq	%r12
	.cfi_def_cfa_offset 40
	pushq	%rbx
	.cfi_def_cfa_offset 48
	.cfi_offset %rbx, -48
	.cfi_offset %r12, -40
	.cfi_offset %r14, -32
	.cfi_offset %r15, -24
	.cfi_offset %rbp, -16
	movl	%r8d, %r14d
	movl	%ecx, %r15d
	movl	%edx, %r12d
	movl	%esi, %ebp
	movq	%rdi, %rbx
	movl	$_ZSt4cout, %edi
	movl	$.L.str.3, %esi
	movl	$7, %edx
	callq	_ZSt16__ostream_insertIcSt11char_traitsIcEERSt13basic_ostreamIT_T0_ES6_PKS3_l
	imull	20(%rbx), %ebp
	leal	(%r12,%rbp), %eax
	imull	24(%rbx), %eax
	addl	%r15d, %eax
	imull	28(%rbx), %eax
	addl	%r14d, %eax
	shlq	$2, %rax
	addq	8(%rbx), %rax
	popq	%rbx
	.cfi_def_cfa_offset 40
	popq	%r12
	.cfi_def_cfa_offset 32
	popq	%r14
	.cfi_def_cfa_offset 24
	popq	%r15
	.cfi_def_cfa_offset 16
	popq	%rbp
	.cfi_def_cfa_offset 8
	retq
.Lfunc_end4:
	.size	_ZNK6TensorIfE3_atEjjjj, .Lfunc_end4-_ZNK6TensorIfE3_atEjjjj
	.cfi_endproc
                                        # -- End function
	.section	.text._ZN6TensorIfE3_atEjjjj,"axG",@progbits,_ZN6TensorIfE3_atEjjjj,comdat
	.weak	_ZN6TensorIfE3_atEjjjj          # -- Begin function _ZN6TensorIfE3_atEjjjj
	.p2align	4, 0x90
	.type	_ZN6TensorIfE3_atEjjjj,@function
_ZN6TensorIfE3_atEjjjj:                 # 
	.cfi_startproc
# %bb.0:
	pushq	%rbp
	.cfi_def_cfa_offset 16
	pushq	%r15
	.cfi_def_cfa_offset 24
	pushq	%r14
	.cfi_def_cfa_offset 32
	pushq	%r12
	.cfi_def_cfa_offset 40
	pushq	%rbx
	.cfi_def_cfa_offset 48
	.cfi_offset %rbx, -48
	.cfi_offset %r12, -40
	.cfi_offset %r14, -32
	.cfi_offset %r15, -24
	.cfi_offset %rbp, -16
	movl	%r8d, %r14d
	movl	%ecx, %r15d
	movl	%edx, %r12d
	movl	%esi, %ebp
	movq	%rdi, %rbx
	movl	$_ZSt4cout, %edi
	movl	$.L.str.3, %esi
	movl	$7, %edx
	callq	_ZSt16__ostream_insertIcSt11char_traitsIcEERSt13basic_ostreamIT_T0_ES6_PKS3_l
	imull	20(%rbx), %ebp
	leal	(%r12,%rbp), %eax
	imull	24(%rbx), %eax
	addl	%r15d, %eax
	imull	28(%rbx), %eax
	addl	%r14d, %eax
	shlq	$2, %rax
	addq	8(%rbx), %rax
	popq	%rbx
	.cfi_def_cfa_offset 40
	popq	%r12
	.cfi_def_cfa_offset 32
	popq	%r14
	.cfi_def_cfa_offset 24
	popq	%r15
	.cfi_def_cfa_offset 16
	popq	%rbp
	.cfi_def_cfa_offset 8
	retq
.Lfunc_end5:
	.size	_ZN6TensorIfE3_atEjjjj, .Lfunc_end5-_ZN6TensorIfE3_atEjjjj
	.cfi_endproc
                                        # -- End function
	.section	.rodata.cst4,"aM",@progbits,4
	.p2align	2                               # -- Begin function _ZNK6TensorIfE18convolveParallelHoERKS0_jjjPf
.LCPI6_0:
	.long	0x80000000                      #  -0
.LCPI6_1:
	.long	0x3effffff                      #  0.49999997
	.section	.text._ZNK6TensorIfE18convolveParallelHoERKS0_jjjPf,"axG",@progbits,_ZNK6TensorIfE18convolveParallelHoERKS0_jjjPf,comdat
	.weak	_ZNK6TensorIfE18convolveParallelHoERKS0_jjjPf
	.p2align	4, 0x90
	.type	_ZNK6TensorIfE18convolveParallelHoERKS0_jjjPf,@function
_ZNK6TensorIfE18convolveParallelHoERKS0_jjjPf: # 
.Lfunc_begin1:
	.cfi_startproc
	.cfi_personality 3, __gxx_personality_v0
	.cfi_lsda 3, .Lexception1
# %bb.0:
	pushq	%rbp
	.cfi_def_cfa_offset 16
	pushq	%r15
	.cfi_def_cfa_offset 24
	pushq	%r14
	.cfi_def_cfa_offset 32
	pushq	%r13
	.cfi_def_cfa_offset 40
	pushq	%r12
	.cfi_def_cfa_offset 48
	pushq	%rbx
	.cfi_def_cfa_offset 56
	subq	$136, %rsp
	.cfi_def_cfa_offset 192
	.cfi_offset %rbx, -56
	.cfi_offset %r12, -48
	.cfi_offset %r13, -40
	.cfi_offset %r14, -32
	.cfi_offset %r15, -24
	.cfi_offset %rbp, -16
	movq	%r9, 64(%rsp)                   # 8-byte Spill
                                        # kill: def $r8d killed $r8d def $r8
	movq	%r8, 16(%rsp)                   # 8-byte Spill
	movl	%edx, 52(%rsp)
	movl	%ecx, 48(%rsp)
	movl	28(%rdi), %eax
	cmpl	28(%rsi), %eax
	jne	.LBB6_91
# %bb.1:
	movl	%edx, %ebp
	movl	16(%rdi), %r14d
	movl	%eax, 44(%rsp)
	movl	16(%rsi), %r12d
	addl	%ecx, %ecx
	movl	20(%rdi), %eax
	addl	%ecx, %eax
	movq	%rdi, 80(%rsp)                  # 8-byte Spill
	addl	24(%rdi), %ecx
	movl	20(%rsi), %edx
	movl	%edx, 40(%rsp)
	movq	%rsi, 88(%rsp)                  # 8-byte Spill
	movl	24(%rsi), %esi
	movl	%esi, 36(%rsp)
	movl	%r14d, 32(%rsp)
	movl	%r12d, 28(%rsp)
	subl	%edx, %eax
	xorl	%edx, %edx
	divl	%ebp
	movl	%eax, %r13d
	subl	%esi, %ecx
	movl	%ecx, %eax
	xorl	%edx, %edx
	divl	%ebp
	movl	%eax, %r15d
	incl	%r13d
	incl	%r15d
	movl	%r15d, 24(%rsp)
	movl	$72, %edi
	callq	_Znwm
	movq	%rax, %rbx
	movl	$1, 96(%rsp)
	movq	$_ZTV6TensorIfE+16, (%rax)
	movl	%r14d, 16(%rax)
	movl	%r12d, 20(%rax)
	movl	%r13d, 24(%rax)
	movl	%r15d, 28(%rax)
	vxorps	%xmm0, %xmm0, %xmm0
	vmovups	%xmm0, 40(%rax)
	movq	$0, 56(%rax)
	movb	$1, 64(%rax)
	movl	%r12d, %eax
	imull	%r14d, %eax
	imull	%r13d, %eax
	imull	%r15d, %eax
	movl	%eax, 32(%rbx)
.Ltmp12:
	movl	$16, %edi
	callq	_Znwm
.Ltmp13:
# %bb.2:
	movq	%rax, %rbp
	movl	%r14d, (%rax)
	movl	%r12d, 4(%rax)
	movl	%r13d, 12(%rsp)                 # 4-byte Spill
	movl	%r13d, 8(%rax)
	movl	%r15d, 12(%rax)
	movq	40(%rbx), %rdi
	testq	%rdi, %rdi
	je	.LBB6_4
# %bb.3:
	callq	_ZdlPv
.LBB6_4:
	movq	%rbp, 40(%rbx)
	addq	$16, %rbp
	movq	%rbp, 48(%rbx)
	movq	%rbp, 56(%rbx)
.Ltmp15:
	leaq	96(%rsp), %rsi
	movq	%rbx, %rdi
	callq	_ZN6TensorIfE9init_dataERKN6tensor4initE
.Ltmp16:
# %bb.5:
	movq	%rbx, 72(%rsp)
	movl	$1, %r14d
	movl	12(%rsp), %r15d                 # 4-byte Reload
	cmpl	16(%rsp), %r15d                 # 4-byte Folded Reload
	jb	.LBB6_7
# %bb.6:
	movl	%r15d, %eax
	vcvtsi2ss	%rax, %xmm1, %xmm0
	movl	16(%rsp), %eax                  # 4-byte Reload
	vcvtsi2ss	%rax, %xmm1, %xmm1
	vdivss	%xmm1, %xmm0, %xmm0
	vbroadcastss	.LCPI6_0(%rip), %xmm1   # xmm1 = [-0.0E+0,-0.0E+0,-0.0E+0,-0.0E+0]
	vandps	%xmm1, %xmm0, %xmm1
	vbroadcastss	.LCPI6_1(%rip), %xmm2   # xmm2 = [4.9999997E-1,4.9999997E-1,4.9999997E-1,4.9999997E-1]
	vorps	%xmm1, %xmm2, %xmm1
	vaddss	%xmm1, %xmm0, %xmm0
	vroundss	$11, %xmm0, %xmm0, %xmm0
	vcvttss2si	%xmm0, %r14
.LBB6_7:
	vxorps	%xmm0, %xmm0, %xmm0
	vmovaps	%xmm0, 96(%rsp)
	movb	$1, 112(%rsp)
	xorl	%ebx, %ebx
.Ltmp18:
	leaq	96(%rsp), %rdi
	xorl	%r12d, %r12d
	callq	_ZN11Chronometer5startEv
.Ltmp19:
# %bb.8:
	xorl	%r13d, %r13d
	testl	%r15d, %r15d
	je	.LBB6_9
# %bb.17:
	movq	16(%rsp), %rax                  # 8-byte Reload
	decl	%eax
	movq	%rax, 16(%rsp)                  # 8-byte Spill
	xorl	%r12d, %r12d
	xorl	%ebx, %ebx
	xorl	%esi, %esi
	jmp	.LBB6_18
	.p2align	4, 0x90
.LBB6_23:                               #   in Loop: Header=BB6_18 Depth=1
	addq	$8, %rbx
	movq	%rbp, %rsi
	addl	%r14d, %r13d
	cmpl	%r13d, %r15d
	jbe	.LBB6_15
.LBB6_18:                               # =>This Loop Header: Depth=1
                                        #     Child Loop BB6_46 Depth 2
                                        #     Child Loop BB6_38 Depth 2
                                        #     Child Loop BB6_53 Depth 2
	movl	%r14d, %eax
	movq	%rbx, %rbp
	subq	%r12, %rbp
	movq	%rbp, %r14
	sarq	$3, %r14
	movl	%r15d, %ecx
	subl	%r13d, %ecx
	cmpq	16(%rsp), %r14                  # 8-byte Folded Reload
	cmovnel	%eax, %ecx
	movq	%rcx, 56(%rsp)                  # 8-byte Spill
	cmpq	%rsi, %rbx
	je	.LBB6_27
# %bb.19:                               #   in Loop: Header=BB6_18 Depth=1
	movq	%rsi, %rbp
	movq	$0, (%rbx)
.Ltmp20:
	movl	$104, %edi
	vzeroupper
	callq	_Znwm
.Ltmp21:
# %bb.20:                               #   in Loop: Header=BB6_18 Depth=1
	movq	$_ZTVNSt6thread11_State_implINS_8_InvokerISt5tupleIJZNK6TensorIfE18convolveParallelHoERKS4_jjjPfEUlvE_EEEEEE+16, (%rax)
	movl	%r13d, 8(%rax)
	movq	56(%rsp), %r14                  # 8-byte Reload
	movl	%r14d, 12(%rax)
	movq	80(%rsp), %rcx                  # 8-byte Reload
	movq	%rcx, 16(%rax)
	leaq	72(%rsp), %rcx
	movq	%rcx, 24(%rax)
	movq	88(%rsp), %rcx                  # 8-byte Reload
	movq	%rcx, 32(%rax)
	leaq	52(%rsp), %rcx
	movq	%rcx, 40(%rax)
	leaq	48(%rsp), %rcx
	movq	%rcx, 48(%rax)
	leaq	32(%rsp), %rcx
	movq	%rcx, 56(%rax)
	leaq	28(%rsp), %rcx
	movq	%rcx, 64(%rax)
	leaq	44(%rsp), %rcx
	movq	%rcx, 72(%rax)
	leaq	40(%rsp), %rcx
	movq	%rcx, 80(%rax)
	leaq	24(%rsp), %rcx
	movq	%rcx, 88(%rax)
	leaq	36(%rsp), %rcx
	movq	%rcx, 96(%rax)
	movq	%rax, (%rsp)
.Ltmp22:
	movl	$pthread_create, %edx
	movq	%rbx, %rdi
	movq	%rsp, %rsi
	callq	_ZNSt6thread15_M_start_threadESt10unique_ptrINS_6_StateESt14default_deleteIS1_EEPFvvE
.Ltmp23:
# %bb.21:                               #   in Loop: Header=BB6_18 Depth=1
	movq	(%rsp), %rdi
	testq	%rdi, %rdi
	movl	12(%rsp), %r15d                 # 4-byte Reload
	je	.LBB6_23
# %bb.22:                               #   in Loop: Header=BB6_18 Depth=1
	movq	(%rdi), %rax
	callq	*8(%rax)
	jmp	.LBB6_23
	.p2align	4, 0x90
.LBB6_27:                               #   in Loop: Header=BB6_18 Depth=1
	testq	%rbp, %rbp
	movq	%r14, %rax
	movl	$1, %ecx
	cmoveq	%rcx, %rax
	leaq	(%rax,%r14), %rdx
	movabsq	$2305843009213693951, %rcx      # imm = 0x1FFFFFFFFFFFFFFF
	cmpq	%rcx, %rdx
	cmovaq	%rcx, %rdx
	addq	%r14, %rax
	cmovbq	%rcx, %rdx
	testq	%rdx, %rdx
	movq	%rdx, 128(%rsp)                 # 8-byte Spill
	je	.LBB6_28
# %bb.29:                               #   in Loop: Header=BB6_18 Depth=1
	leaq	(,%rdx,8), %rdi
.Ltmp25:
	vzeroupper
	callq	_Znwm
.Ltmp26:
# %bb.30:                               #   in Loop: Header=BB6_18 Depth=1
	movq	%rax, %r15
	jmp	.LBB6_31
.LBB6_28:                               #   in Loop: Header=BB6_18 Depth=1
	xorl	%r15d, %r15d
.LBB6_31:                               #   in Loop: Header=BB6_18 Depth=1
	movq	$0, (%r15,%r14,8)
.Ltmp28:
	movl	$104, %edi
	vzeroupper
	callq	_Znwm
.Ltmp29:
# %bb.32:                               #   in Loop: Header=BB6_18 Depth=1
	movq	$_ZTVNSt6thread11_State_implINS_8_InvokerISt5tupleIJZNK6TensorIfE18convolveParallelHoERKS4_jjjPfEUlvE_EEEEEE+16, (%rax)
	movl	%r13d, 8(%rax)
	movq	56(%rsp), %rcx                  # 8-byte Reload
	movl	%ecx, 12(%rax)
	movq	80(%rsp), %rcx                  # 8-byte Reload
	movq	%rcx, 16(%rax)
	leaq	72(%rsp), %rcx
	movq	%rcx, 24(%rax)
	movq	88(%rsp), %rcx                  # 8-byte Reload
	movq	%rcx, 32(%rax)
	leaq	52(%rsp), %rcx
	movq	%rcx, 40(%rax)
	leaq	48(%rsp), %rcx
	movq	%rcx, 48(%rax)
	leaq	32(%rsp), %rcx
	movq	%rcx, 56(%rax)
	leaq	28(%rsp), %rcx
	movq	%rcx, 64(%rax)
	leaq	44(%rsp), %rcx
	movq	%rcx, 72(%rax)
	leaq	40(%rsp), %rcx
	movq	%rcx, 80(%rax)
	leaq	24(%rsp), %rcx
	movq	%rcx, 88(%rax)
	leaq	36(%rsp), %rcx
	movq	%rcx, 96(%rax)
	movq	%rax, (%rsp)
	leaq	(%r15,%r14,8), %rdi
.Ltmp31:
	movl	$pthread_create, %edx
	movq	%rsp, %rsi
	callq	_ZNSt6thread15_M_start_threadESt10unique_ptrINS_6_StateESt14default_deleteIS1_EEPFvvE
.Ltmp32:
# %bb.33:                               #   in Loop: Header=BB6_18 Depth=1
	movq	(%rsp), %rdi
	testq	%rdi, %rdi
	je	.LBB6_35
# %bb.34:                               #   in Loop: Header=BB6_18 Depth=1
	movq	(%rdi), %rax
	callq	*8(%rax)
.LBB6_35:                               #   in Loop: Header=BB6_18 Depth=1
	cmpq	%rbx, %r12
	je	.LBB6_56
# %bb.36:                               #   in Loop: Header=BB6_18 Depth=1
	addq	$-8, %rbp
	movq	%r15, %rdx
	movq	%r12, %rcx
	cmpq	$119, %rbp
	vxorps	%xmm4, %xmm4, %xmm4
	jbe	.LBB6_37
# %bb.41:                               #   in Loop: Header=BB6_18 Depth=1
	shrq	$3, %rbp
	leaq	(%r12,%rbp,8), %rax
	addq	$8, %rax
	cmpq	%rax, %r15
	jae	.LBB6_43
# %bb.42:                               #   in Loop: Header=BB6_18 Depth=1
	leaq	(%r15,%rbp,8), %rax
	addq	$8, %rax
	movq	%r15, %rdx
	movq	%r12, %rcx
	cmpq	%rax, %r12
	jb	.LBB6_37
.LBB6_43:                               #   in Loop: Header=BB6_18 Depth=1
	incq	%rbp
	movq	%rbp, %rax
	andq	$-16, %rax
	leaq	-16(%rax), %rcx
	movq	%rcx, %rdx
	shrq	$4, %rdx
	incq	%rdx
	testq	%rcx, %rcx
	je	.LBB6_44
# %bb.45:                               #   in Loop: Header=BB6_18 Depth=1
	movq	%rdx, %rsi
	andq	$-2, %rsi
	negq	%rsi
	xorl	%ecx, %ecx
	.p2align	4, 0x90
.LBB6_46:                               #   Parent Loop BB6_18 Depth=1
                                        # =>  This Inner Loop Header: Depth=2
	vmovups	%ymm4, (%r15,%rcx,8)
	vmovups	%ymm4, 32(%r15,%rcx,8)
	vmovups	%ymm4, 64(%r15,%rcx,8)
	vmovups	%ymm4, 96(%r15,%rcx,8)
	vmovups	(%r12,%rcx,8), %ymm0
	vmovups	32(%r12,%rcx,8), %ymm1
	vmovups	64(%r12,%rcx,8), %ymm2
	vmovups	96(%r12,%rcx,8), %ymm3
	vmovups	%ymm0, (%r15,%rcx,8)
	vmovups	%ymm1, 32(%r15,%rcx,8)
	vmovups	%ymm2, 64(%r15,%rcx,8)
	vmovups	%ymm3, 96(%r15,%rcx,8)
	vmovups	%ymm4, (%r12,%rcx,8)
	vmovups	%ymm4, 32(%r12,%rcx,8)
	vmovups	%ymm4, 64(%r12,%rcx,8)
	vmovups	%ymm4, 96(%r12,%rcx,8)
	vmovups	%ymm4, 128(%r15,%rcx,8)
	vmovups	%ymm4, 160(%r15,%rcx,8)
	vmovups	%ymm4, 192(%r15,%rcx,8)
	vmovups	%ymm4, 224(%r15,%rcx,8)
	vmovups	128(%r12,%rcx,8), %ymm0
	vmovups	160(%r12,%rcx,8), %ymm1
	vmovups	192(%r12,%rcx,8), %ymm2
	vmovups	224(%r12,%rcx,8), %ymm3
	vmovups	%ymm0, 128(%r15,%rcx,8)
	vmovups	%ymm1, 160(%r15,%rcx,8)
	vmovups	%ymm2, 192(%r15,%rcx,8)
	vmovups	%ymm3, 224(%r15,%rcx,8)
	vmovups	%ymm4, 128(%r12,%rcx,8)
	vmovups	%ymm4, 160(%r12,%rcx,8)
	vmovups	%ymm4, 192(%r12,%rcx,8)
	vmovups	%ymm4, 224(%r12,%rcx,8)
	addq	$32, %rcx
	addq	$2, %rsi
	jne	.LBB6_46
# %bb.47:                               #   in Loop: Header=BB6_18 Depth=1
	testb	$1, %dl
	je	.LBB6_49
.LBB6_48:                               #   in Loop: Header=BB6_18 Depth=1
	vmovups	%ymm4, (%r15,%rcx,8)
	vmovups	%ymm4, 32(%r15,%rcx,8)
	vmovups	%ymm4, 64(%r15,%rcx,8)
	vmovups	%ymm4, 96(%r15,%rcx,8)
	vmovups	(%r12,%rcx,8), %ymm0
	vmovups	32(%r12,%rcx,8), %ymm1
	vmovups	64(%r12,%rcx,8), %ymm2
	vmovups	96(%r12,%rcx,8), %ymm3
	vmovups	%ymm0, (%r15,%rcx,8)
	vmovups	%ymm1, 32(%r15,%rcx,8)
	vmovups	%ymm2, 64(%r15,%rcx,8)
	vmovups	%ymm3, 96(%r15,%rcx,8)
	vmovups	%ymm4, (%r12,%rcx,8)
	vmovups	%ymm4, 32(%r12,%rcx,8)
	vmovups	%ymm4, 64(%r12,%rcx,8)
	vmovups	%ymm4, 96(%r12,%rcx,8)
.LBB6_49:                               #   in Loop: Header=BB6_18 Depth=1
	cmpq	%rax, %rbp
	jne	.LBB6_50
# %bb.51:                               #   in Loop: Header=BB6_18 Depth=1
	leaq	(%r15,%rax,8), %rax
	addq	$-8, %rax
	jmp	.LBB6_52
.LBB6_56:                               #   in Loop: Header=BB6_18 Depth=1
	leaq	8(%r15), %rbx
	movq	56(%rsp), %r14                  # 8-byte Reload
	testq	%r12, %r12
	jne	.LBB6_58
	jmp	.LBB6_59
.LBB6_50:                               #   in Loop: Header=BB6_18 Depth=1
	leaq	(%r15,%rax,8), %rdx
	leaq	(%r12,%rax,8), %rcx
	.p2align	4, 0x90
.LBB6_37:                               #   in Loop: Header=BB6_18 Depth=1
	addq	$-8, %rdx
	.p2align	4, 0x90
.LBB6_38:                               #   Parent Loop BB6_18 Depth=1
                                        # =>  This Inner Loop Header: Depth=2
	leaq	8(%rdx), %rax
	movq	$0, 8(%rdx)
	movq	(%rcx), %rsi
	movq	%rsi, 8(%rdx)
	movq	$0, (%rcx)
	addq	$8, %rcx
	movq	%rax, %rdx
	cmpq	%rcx, %rbx
	jne	.LBB6_38
.LBB6_52:                               #   in Loop: Header=BB6_18 Depth=1
	addq	$16, %rax
	movq	%r12, %rcx
	movq	56(%rsp), %r14                  # 8-byte Reload
	.p2align	4, 0x90
.LBB6_53:                               #   Parent Loop BB6_18 Depth=1
                                        # =>  This Inner Loop Header: Depth=2
	cmpq	$0, (%rcx)
	jne	.LBB6_86
# %bb.54:                               #   in Loop: Header=BB6_53 Depth=2
	addq	$8, %rcx
	cmpq	%rcx, %rbx
	jne	.LBB6_53
# %bb.55:                               #   in Loop: Header=BB6_18 Depth=1
	movq	%rax, %rbx
	testq	%r12, %r12
	je	.LBB6_59
.LBB6_58:                               #   in Loop: Header=BB6_18 Depth=1
	movq	%r12, %rdi
	vzeroupper
	callq	_ZdlPv
.LBB6_59:                               #   in Loop: Header=BB6_18 Depth=1
	movq	128(%rsp), %rax                 # 8-byte Reload
	leaq	(%r15,%rax,8), %rsi
	movq	%r15, %r12
	movl	12(%rsp), %r15d                 # 4-byte Reload
	addl	%r14d, %r13d
	cmpl	%r13d, %r15d
	ja	.LBB6_18
	jmp	.LBB6_15
.LBB6_44:                               #   in Loop: Header=BB6_18 Depth=1
	xorl	%ecx, %ecx
	testb	$1, %dl
	jne	.LBB6_48
	jmp	.LBB6_49
.LBB6_15:
	cmpq	%rbx, %r12
	je	.LBB6_16
# %bb.65:
	movq	%r12, %rbp
	movq	64(%rsp), %r14                  # 8-byte Reload
	.p2align	4, 0x90
.LBB6_66:                               # =>This Inner Loop Header: Depth=1
.Ltmp40:
	movq	%rbp, %rdi
	vzeroupper
	callq	_ZNSt6thread4joinEv
.Ltmp41:
# %bb.67:                               #   in Loop: Header=BB6_66 Depth=1
	addq	$8, %rbp
	cmpq	%rbp, %rbx
	jne	.LBB6_66
# %bb.68:
	xorl	%r15d, %r15d
	jmp	.LBB6_69
.LBB6_9:
	xorl	%r12d, %r12d
	xorl	%ebx, %ebx
.LBB6_16:
	movq	64(%rsp), %r14                  # 8-byte Reload
	movb	$1, %r15b
.LBB6_69:
.Ltmp43:
	leaq	96(%rsp), %rdi
	vzeroupper
	callq	_ZN11Chronometer4stopEv
.Ltmp44:
# %bb.70:
	testq	%r14, %r14
	je	.LBB6_73
# %bb.71:
.Ltmp45:
	leaq	96(%rsp), %rdi
	callq	_ZN11Chronometer7getTimeEv
.Ltmp46:
# %bb.72:
	vmovss	%xmm0, (%r14)
.LBB6_73:
	movq	72(%rsp), %rbp
	testb	%r15b, %r15b
	jne	.LBB6_77
# %bb.74:
	movq	%r12, %rax
	.p2align	4, 0x90
.LBB6_76:                               # =>This Inner Loop Header: Depth=1
	cmpq	$0, (%rax)
	jne	.LBB6_86
# %bb.75:                               #   in Loop: Header=BB6_76 Depth=1
	addq	$8, %rax
	cmpq	%rax, %rbx
	jne	.LBB6_76
.LBB6_77:
	testq	%r12, %r12
	je	.LBB6_79
# %bb.78:
	movq	%r12, %rdi
	callq	_ZdlPv
.LBB6_79:
	movq	%rbp, %rax
	addq	$136, %rsp
	.cfi_def_cfa_offset 56
	popq	%rbx
	.cfi_def_cfa_offset 48
	popq	%r12
	.cfi_def_cfa_offset 40
	popq	%r13
	.cfi_def_cfa_offset 32
	popq	%r14
	.cfi_def_cfa_offset 24
	popq	%r15
	.cfi_def_cfa_offset 16
	popq	%rbp
	.cfi_def_cfa_offset 8
	retq
.LBB6_91:
	.cfi_def_cfa_offset 192
	movl	$.L.str.4, %edi
	movl	$.L.str.1, %esi
	movl	$.L__PRETTY_FUNCTION__._ZNK6TensorIfE18convolveParallelHoERKS0_jjjPf, %ecx
	movl	$440, %edx                      # imm = 0x1B8
	callq	__assert_fail
.LBB6_11:
.Ltmp17:
	jmp	.LBB6_12
.LBB6_10:
.Ltmp14:
.LBB6_12:
	movq	%rax, %rbp
	movq	%rbx, %rax
	addq	$40, %rax
	movq	(%rax), %rdi
	testq	%rdi, %rdi
	je	.LBB6_14
# %bb.13:
	callq	_ZdlPv
.LBB6_14:
	movq	%rbx, %rdi
	jmp	.LBB6_89
.LBB6_80:
.Ltmp47:
	jmp	.LBB6_81
.LBB6_61:
.Ltmp30:
	movq	%rax, %rbp
	jmp	.LBB6_62
.LBB6_39:
.Ltmp33:
	movq	%rax, %rbp
	movq	(%rsp), %rdi
	testq	%rdi, %rdi
	je	.LBB6_62
# %bb.40:
	movq	(%rdi), %rax
	callq	*8(%rax)
.LBB6_62:
	movq	%rbp, %rdi
	callq	__cxa_begin_catch
	movq	%r15, %rdi
	callq	_ZdlPv
.Ltmp34:
	callq	__cxa_rethrow
.Ltmp35:
# %bb.63:
.LBB6_60:
.Ltmp36:
	movq	%rax, %rbp
.Ltmp37:
	callq	__cxa_end_catch
.Ltmp38:
	jmp	.LBB6_82
.LBB6_92:
.Ltmp39:
	movq	%rax, %rdi
	callq	__clang_call_terminate
.LBB6_93:
.Ltmp42:
	jmp	.LBB6_81
.LBB6_25:
.Ltmp24:
	movq	%rax, %rbp
	movq	(%rsp), %rdi
	testq	%rdi, %rdi
	je	.LBB6_82
# %bb.26:
	movq	(%rdi), %rax
	callq	*8(%rax)
	jmp	.LBB6_82
.LBB6_64:
.Ltmp27:
.LBB6_81:
	movq	%rax, %rbp
.LBB6_82:
	cmpq	%rbx, %r12
	je	.LBB6_87
# %bb.83:
	movq	%r12, %rax
	.p2align	4, 0x90
.LBB6_85:                               # =>This Inner Loop Header: Depth=1
	cmpq	$0, (%rax)
	jne	.LBB6_86
# %bb.84:                               #   in Loop: Header=BB6_85 Depth=1
	addq	$8, %rax
	cmpq	%rax, %rbx
	jne	.LBB6_85
.LBB6_87:
	testq	%r12, %r12
	je	.LBB6_90
# %bb.88:
	movq	%r12, %rdi
.LBB6_89:
	callq	_ZdlPv
.LBB6_90:
	movq	%rbp, %rdi
	callq	_Unwind_Resume@PLT
.LBB6_86:
	vzeroupper
	callq	_ZSt9terminatev
.Lfunc_end6:
	.size	_ZNK6TensorIfE18convolveParallelHoERKS0_jjjPf, .Lfunc_end6-_ZNK6TensorIfE18convolveParallelHoERKS0_jjjPf
	.cfi_endproc
	.section	.gcc_except_table._ZNK6TensorIfE18convolveParallelHoERKS0_jjjPf,"aG",@progbits,_ZNK6TensorIfE18convolveParallelHoERKS0_jjjPf,comdat
	.p2align	2
GCC_except_table6:
.Lexception1:
	.byte	255                             # @LPStart Encoding = omit
	.byte	3                               # @TType Encoding = udata4
	.uleb128 .Lttbase1-.Lttbaseref1
.Lttbaseref1:
	.byte	1                               # Call site Encoding = uleb128
	.uleb128 .Lcst_end1-.Lcst_begin1
.Lcst_begin1:
	.uleb128 .Lfunc_begin1-.Lfunc_begin1    # >> Call Site 1 <<
	.uleb128 .Ltmp12-.Lfunc_begin1          #   Call between .Lfunc_begin1 and .Ltmp12
	.byte	0                               #     has no landing pad
	.byte	0                               #   On action: cleanup
	.uleb128 .Ltmp12-.Lfunc_begin1          # >> Call Site 2 <<
	.uleb128 .Ltmp13-.Ltmp12                #   Call between .Ltmp12 and .Ltmp13
	.uleb128 .Ltmp14-.Lfunc_begin1          #     jumps to .Ltmp14
	.byte	0                               #   On action: cleanup
	.uleb128 .Ltmp15-.Lfunc_begin1          # >> Call Site 3 <<
	.uleb128 .Ltmp16-.Ltmp15                #   Call between .Ltmp15 and .Ltmp16
	.uleb128 .Ltmp17-.Lfunc_begin1          #     jumps to .Ltmp17
	.byte	0                               #   On action: cleanup
	.uleb128 .Ltmp18-.Lfunc_begin1          # >> Call Site 4 <<
	.uleb128 .Ltmp19-.Ltmp18                #   Call between .Ltmp18 and .Ltmp19
	.uleb128 .Ltmp47-.Lfunc_begin1          #     jumps to .Ltmp47
	.byte	0                               #   On action: cleanup
	.uleb128 .Ltmp20-.Lfunc_begin1          # >> Call Site 5 <<
	.uleb128 .Ltmp21-.Ltmp20                #   Call between .Ltmp20 and .Ltmp21
	.uleb128 .Ltmp27-.Lfunc_begin1          #     jumps to .Ltmp27
	.byte	0                               #   On action: cleanup
	.uleb128 .Ltmp22-.Lfunc_begin1          # >> Call Site 6 <<
	.uleb128 .Ltmp23-.Ltmp22                #   Call between .Ltmp22 and .Ltmp23
	.uleb128 .Ltmp24-.Lfunc_begin1          #     jumps to .Ltmp24
	.byte	0                               #   On action: cleanup
	.uleb128 .Ltmp23-.Lfunc_begin1          # >> Call Site 7 <<
	.uleb128 .Ltmp25-.Ltmp23                #   Call between .Ltmp23 and .Ltmp25
	.byte	0                               #     has no landing pad
	.byte	0                               #   On action: cleanup
	.uleb128 .Ltmp25-.Lfunc_begin1          # >> Call Site 8 <<
	.uleb128 .Ltmp26-.Ltmp25                #   Call between .Ltmp25 and .Ltmp26
	.uleb128 .Ltmp27-.Lfunc_begin1          #     jumps to .Ltmp27
	.byte	0                               #   On action: cleanup
	.uleb128 .Ltmp28-.Lfunc_begin1          # >> Call Site 9 <<
	.uleb128 .Ltmp29-.Ltmp28                #   Call between .Ltmp28 and .Ltmp29
	.uleb128 .Ltmp30-.Lfunc_begin1          #     jumps to .Ltmp30
	.byte	1                               #   On action: 1
	.uleb128 .Ltmp31-.Lfunc_begin1          # >> Call Site 10 <<
	.uleb128 .Ltmp32-.Ltmp31                #   Call between .Ltmp31 and .Ltmp32
	.uleb128 .Ltmp33-.Lfunc_begin1          #     jumps to .Ltmp33
	.byte	1                               #   On action: 1
	.uleb128 .Ltmp32-.Lfunc_begin1          # >> Call Site 11 <<
	.uleb128 .Ltmp40-.Ltmp32                #   Call between .Ltmp32 and .Ltmp40
	.byte	0                               #     has no landing pad
	.byte	0                               #   On action: cleanup
	.uleb128 .Ltmp40-.Lfunc_begin1          # >> Call Site 12 <<
	.uleb128 .Ltmp41-.Ltmp40                #   Call between .Ltmp40 and .Ltmp41
	.uleb128 .Ltmp42-.Lfunc_begin1          #     jumps to .Ltmp42
	.byte	0                               #   On action: cleanup
	.uleb128 .Ltmp43-.Lfunc_begin1          # >> Call Site 13 <<
	.uleb128 .Ltmp46-.Ltmp43                #   Call between .Ltmp43 and .Ltmp46
	.uleb128 .Ltmp47-.Lfunc_begin1          #     jumps to .Ltmp47
	.byte	0                               #   On action: cleanup
	.uleb128 .Ltmp46-.Lfunc_begin1          # >> Call Site 14 <<
	.uleb128 .Ltmp34-.Ltmp46                #   Call between .Ltmp46 and .Ltmp34
	.byte	0                               #     has no landing pad
	.byte	0                               #   On action: cleanup
	.uleb128 .Ltmp34-.Lfunc_begin1          # >> Call Site 15 <<
	.uleb128 .Ltmp35-.Ltmp34                #   Call between .Ltmp34 and .Ltmp35
	.uleb128 .Ltmp36-.Lfunc_begin1          #     jumps to .Ltmp36
	.byte	0                               #   On action: cleanup
	.uleb128 .Ltmp37-.Lfunc_begin1          # >> Call Site 16 <<
	.uleb128 .Ltmp38-.Ltmp37                #   Call between .Ltmp37 and .Ltmp38
	.uleb128 .Ltmp39-.Lfunc_begin1          #     jumps to .Ltmp39
	.byte	1                               #   On action: 1
	.uleb128 .Ltmp38-.Lfunc_begin1          # >> Call Site 17 <<
	.uleb128 .Lfunc_end6-.Ltmp38            #   Call between .Ltmp38 and .Lfunc_end6
	.byte	0                               #     has no landing pad
	.byte	0                               #   On action: cleanup
.Lcst_end1:
	.byte	1                               # >> Action Record 1 <<
                                        #   Catch TypeInfo 1
	.byte	0                               #   No further actions
	.p2align	2
                                        # >> Catch TypeInfos <<
	.long	0                               # TypeInfo 1
.Lttbase1:
	.p2align	2
                                        # -- End function
	.section	.rodata.cst4,"aM",@progbits,4
	.p2align	2                               # -- Begin function _ZNK6TensorIfE18convolveParallelCoERKS0_jjjPf
.LCPI7_0:
	.long	0x80000000                      #  -0
.LCPI7_1:
	.long	0x3effffff                      #  0.49999997
	.section	.text._ZNK6TensorIfE18convolveParallelCoERKS0_jjjPf,"axG",@progbits,_ZNK6TensorIfE18convolveParallelCoERKS0_jjjPf,comdat
	.weak	_ZNK6TensorIfE18convolveParallelCoERKS0_jjjPf
	.p2align	4, 0x90
	.type	_ZNK6TensorIfE18convolveParallelCoERKS0_jjjPf,@function
_ZNK6TensorIfE18convolveParallelCoERKS0_jjjPf: # 
.Lfunc_begin2:
	.cfi_startproc
	.cfi_personality 3, __gxx_personality_v0
	.cfi_lsda 3, .Lexception2
# %bb.0:
	pushq	%rbp
	.cfi_def_cfa_offset 16
	pushq	%r15
	.cfi_def_cfa_offset 24
	pushq	%r14
	.cfi_def_cfa_offset 32
	pushq	%r13
	.cfi_def_cfa_offset 40
	pushq	%r12
	.cfi_def_cfa_offset 48
	pushq	%rbx
	.cfi_def_cfa_offset 56
	subq	$136, %rsp
	.cfi_def_cfa_offset 192
	.cfi_offset %rbx, -56
	.cfi_offset %r12, -48
	.cfi_offset %r13, -40
	.cfi_offset %r14, -32
	.cfi_offset %r15, -24
	.cfi_offset %rbp, -16
                                        # kill: def $r8d killed $r8d def $r8
	movq	%r8, 8(%rsp)                    # 8-byte Spill
	movl	%edx, 52(%rsp)
	movl	%ecx, 48(%rsp)
	movl	28(%rdi), %eax
	cmpl	28(%rsi), %eax
	jne	.LBB7_91
# %bb.1:
	movq	%r9, %r12
	movl	%edx, %ebp
	movl	16(%rdi), %edx
	movl	%eax, 44(%rsp)
	movl	16(%rsi), %r13d
	addl	%ecx, %ecx
	movl	20(%rdi), %eax
	addl	%ecx, %eax
	movq	%rdi, 80(%rsp)                  # 8-byte Spill
	addl	24(%rdi), %ecx
	movl	20(%rsi), %ebx
	movl	%ebx, 40(%rsp)
	movq	%rsi, 88(%rsp)                  # 8-byte Spill
	movl	24(%rsi), %edi
	movl	%edi, 36(%rsp)
	movl	%edx, 32(%rsp)
	subl	%ebx, %eax
	xorl	%edx, %edx
	divl	%ebp
	movl	%eax, %r14d
	incl	%r14d
	movl	%r14d, 28(%rsp)
	subl	%edi, %ecx
	movl	%ecx, %eax
	xorl	%edx, %edx
	divl	%ebp
	movl	%eax, %r15d
	incl	%r15d
	movl	%r15d, 24(%rsp)
	movl	$72, %edi
	callq	_Znwm
	movq	%rax, %rbx
	movq	$_ZTV6TensorIfE+16, (%rax)
	movl	$1, 16(%rax)
	movl	%r14d, 20(%rax)
	movl	%r15d, 24(%rax)
	movl	%r13d, 28(%rax)
	vxorps	%xmm0, %xmm0, %xmm0
	vmovups	%xmm0, 40(%rax)
	movl	$1, 96(%rsp)
	movq	$0, 56(%rax)
	movb	$1, 64(%rax)
	movl	%r14d, %eax
	imull	%r13d, %eax
	imull	%r15d, %eax
	movl	%eax, 32(%rbx)
.Ltmp48:
	movl	$16, %edi
	callq	_Znwm
.Ltmp49:
# %bb.2:
	movq	%rax, %rbp
	movl	$1, (%rax)
	movl	%r14d, 4(%rax)
	movl	%r15d, 8(%rax)
	movl	%r13d, 12(%rax)
	movq	40(%rbx), %rdi
	testq	%rdi, %rdi
	movl	%r13d, %r15d
	je	.LBB7_4
# %bb.3:
	callq	_ZdlPv
.LBB7_4:
	movq	%rbp, 40(%rbx)
	addq	$16, %rbp
	movq	%rbp, 48(%rbx)
	movq	%rbp, 56(%rbx)
.Ltmp51:
	leaq	96(%rsp), %rsi
	movq	%rbx, %rdi
	callq	_ZN6TensorIfE9init_dataERKN6tensor4initE
.Ltmp52:
# %bb.5:
	movq	%rbx, 72(%rsp)
	movl	$1, %r13d
	cmpl	8(%rsp), %r15d                  # 4-byte Folded Reload
	jb	.LBB7_7
# %bb.6:
	movl	%r15d, %eax
	vcvtsi2ss	%rax, %xmm1, %xmm0
	movl	8(%rsp), %eax                   # 4-byte Reload
	vcvtsi2ss	%rax, %xmm1, %xmm1
	vdivss	%xmm1, %xmm0, %xmm0
	vbroadcastss	.LCPI7_0(%rip), %xmm1   # xmm1 = [-0.0E+0,-0.0E+0,-0.0E+0,-0.0E+0]
	vandps	%xmm1, %xmm0, %xmm1
	vbroadcastss	.LCPI7_1(%rip), %xmm2   # xmm2 = [4.9999997E-1,4.9999997E-1,4.9999997E-1,4.9999997E-1]
	vorps	%xmm1, %xmm2, %xmm1
	vaddss	%xmm1, %xmm0, %xmm0
	vroundss	$11, %xmm0, %xmm0, %xmm0
	vcvttss2si	%xmm0, %r13
.LBB7_7:
	vxorps	%xmm0, %xmm0, %xmm0
	vmovaps	%xmm0, 96(%rsp)
	movb	$1, 112(%rsp)
	xorl	%ebx, %ebx
.Ltmp54:
	leaq	96(%rsp), %rdi
	xorl	%r14d, %r14d
	callq	_ZN11Chronometer5startEv
.Ltmp55:
# %bb.8:
	movq	%r12, 64(%rsp)                  # 8-byte Spill
	xorl	%r12d, %r12d
	testl	%r15d, %r15d
	je	.LBB7_9
# %bb.17:
	movq	8(%rsp), %rax                   # 8-byte Reload
	decl	%eax
	movq	%rax, 8(%rsp)                   # 8-byte Spill
	xorl	%r14d, %r14d
	xorl	%ebx, %ebx
	xorl	%esi, %esi
	movl	%r15d, 20(%rsp)                 # 4-byte Spill
	jmp	.LBB7_18
	.p2align	4, 0x90
.LBB7_23:                               #   in Loop: Header=BB7_18 Depth=1
	addq	$8, %rbx
	movq	%rbp, %rsi
	addl	%r13d, %r12d
	cmpl	%r12d, %r15d
	jbe	.LBB7_15
.LBB7_18:                               # =>This Loop Header: Depth=1
                                        #     Child Loop BB7_46 Depth 2
                                        #     Child Loop BB7_38 Depth 2
                                        #     Child Loop BB7_53 Depth 2
	movl	%r13d, %eax
	movq	%rbx, %rbp
	subq	%r14, %rbp
	movq	%rbp, %r13
	sarq	$3, %r13
	movl	%r15d, %ecx
	subl	%r12d, %ecx
	cmpq	8(%rsp), %r13                   # 8-byte Folded Reload
	cmovnel	%eax, %ecx
	movq	%rcx, 56(%rsp)                  # 8-byte Spill
	cmpq	%rsi, %rbx
	je	.LBB7_27
# %bb.19:                               #   in Loop: Header=BB7_18 Depth=1
	movq	%rsi, %rbp
	movq	$0, (%rbx)
.Ltmp56:
	movl	$104, %edi
	vzeroupper
	callq	_Znwm
.Ltmp57:
# %bb.20:                               #   in Loop: Header=BB7_18 Depth=1
	movq	$_ZTVNSt6thread11_State_implINS_8_InvokerISt5tupleIJZNK6TensorIfE18convolveParallelCoERKS4_jjjPfEUlvE_EEEEEE+16, (%rax)
	movl	%r12d, 8(%rax)
	movq	56(%rsp), %r13                  # 8-byte Reload
	movl	%r13d, 12(%rax)
	movq	80(%rsp), %rcx                  # 8-byte Reload
	movq	%rcx, 16(%rax)
	leaq	72(%rsp), %rcx
	movq	%rcx, 24(%rax)
	movq	88(%rsp), %rcx                  # 8-byte Reload
	movq	%rcx, 32(%rax)
	leaq	52(%rsp), %rcx
	movq	%rcx, 40(%rax)
	leaq	48(%rsp), %rcx
	movq	%rcx, 48(%rax)
	leaq	32(%rsp), %rcx
	movq	%rcx, 56(%rax)
	leaq	44(%rsp), %rcx
	movq	%rcx, 64(%rax)
	leaq	28(%rsp), %rcx
	movq	%rcx, 72(%rax)
	leaq	40(%rsp), %rcx
	movq	%rcx, 80(%rax)
	leaq	24(%rsp), %rcx
	movq	%rcx, 88(%rax)
	leaq	36(%rsp), %rcx
	movq	%rcx, 96(%rax)
	movq	%rax, (%rsp)
.Ltmp58:
	movl	$pthread_create, %edx
	movq	%rbx, %rdi
	movq	%rsp, %rsi
	callq	_ZNSt6thread15_M_start_threadESt10unique_ptrINS_6_StateESt14default_deleteIS1_EEPFvvE
.Ltmp59:
# %bb.21:                               #   in Loop: Header=BB7_18 Depth=1
	movq	(%rsp), %rdi
	testq	%rdi, %rdi
	movl	20(%rsp), %r15d                 # 4-byte Reload
	je	.LBB7_23
# %bb.22:                               #   in Loop: Header=BB7_18 Depth=1
	movq	(%rdi), %rax
	callq	*8(%rax)
	jmp	.LBB7_23
	.p2align	4, 0x90
.LBB7_27:                               #   in Loop: Header=BB7_18 Depth=1
	testq	%rbp, %rbp
	movq	%r13, %rax
	movl	$1, %ecx
	cmoveq	%rcx, %rax
	leaq	(%rax,%r13), %rdx
	movabsq	$2305843009213693951, %rcx      # imm = 0x1FFFFFFFFFFFFFFF
	cmpq	%rcx, %rdx
	cmovaq	%rcx, %rdx
	addq	%r13, %rax
	cmovbq	%rcx, %rdx
	testq	%rdx, %rdx
	movq	%rdx, 128(%rsp)                 # 8-byte Spill
	je	.LBB7_28
# %bb.29:                               #   in Loop: Header=BB7_18 Depth=1
	leaq	(,%rdx,8), %rdi
.Ltmp61:
	vzeroupper
	callq	_Znwm
.Ltmp62:
# %bb.30:                               #   in Loop: Header=BB7_18 Depth=1
	movq	%rax, %r15
	jmp	.LBB7_31
.LBB7_28:                               #   in Loop: Header=BB7_18 Depth=1
	xorl	%r15d, %r15d
.LBB7_31:                               #   in Loop: Header=BB7_18 Depth=1
	movq	$0, (%r15,%r13,8)
.Ltmp64:
	movl	$104, %edi
	vzeroupper
	callq	_Znwm
.Ltmp65:
# %bb.32:                               #   in Loop: Header=BB7_18 Depth=1
	movq	$_ZTVNSt6thread11_State_implINS_8_InvokerISt5tupleIJZNK6TensorIfE18convolveParallelCoERKS4_jjjPfEUlvE_EEEEEE+16, (%rax)
	movl	%r12d, 8(%rax)
	movq	56(%rsp), %rcx                  # 8-byte Reload
	movl	%ecx, 12(%rax)
	movq	80(%rsp), %rcx                  # 8-byte Reload
	movq	%rcx, 16(%rax)
	leaq	72(%rsp), %rcx
	movq	%rcx, 24(%rax)
	movq	88(%rsp), %rcx                  # 8-byte Reload
	movq	%rcx, 32(%rax)
	leaq	52(%rsp), %rcx
	movq	%rcx, 40(%rax)
	leaq	48(%rsp), %rcx
	movq	%rcx, 48(%rax)
	leaq	32(%rsp), %rcx
	movq	%rcx, 56(%rax)
	leaq	44(%rsp), %rcx
	movq	%rcx, 64(%rax)
	leaq	28(%rsp), %rcx
	movq	%rcx, 72(%rax)
	leaq	40(%rsp), %rcx
	movq	%rcx, 80(%rax)
	leaq	24(%rsp), %rcx
	movq	%rcx, 88(%rax)
	leaq	36(%rsp), %rcx
	movq	%rcx, 96(%rax)
	movq	%rax, (%rsp)
	leaq	(%r15,%r13,8), %rdi
.Ltmp67:
	movl	$pthread_create, %edx
	movq	%rsp, %rsi
	callq	_ZNSt6thread15_M_start_threadESt10unique_ptrINS_6_StateESt14default_deleteIS1_EEPFvvE
.Ltmp68:
# %bb.33:                               #   in Loop: Header=BB7_18 Depth=1
	movq	(%rsp), %rdi
	testq	%rdi, %rdi
	je	.LBB7_35
# %bb.34:                               #   in Loop: Header=BB7_18 Depth=1
	movq	(%rdi), %rax
	callq	*8(%rax)
.LBB7_35:                               #   in Loop: Header=BB7_18 Depth=1
	cmpq	%rbx, %r14
	je	.LBB7_56
# %bb.36:                               #   in Loop: Header=BB7_18 Depth=1
	addq	$-8, %rbp
	movq	%r15, %rdx
	movq	%r14, %rcx
	cmpq	$119, %rbp
	vxorps	%xmm4, %xmm4, %xmm4
	jbe	.LBB7_37
# %bb.41:                               #   in Loop: Header=BB7_18 Depth=1
	shrq	$3, %rbp
	leaq	(%r14,%rbp,8), %rax
	addq	$8, %rax
	cmpq	%rax, %r15
	jae	.LBB7_43
# %bb.42:                               #   in Loop: Header=BB7_18 Depth=1
	leaq	(%r15,%rbp,8), %rax
	addq	$8, %rax
	movq	%r15, %rdx
	movq	%r14, %rcx
	cmpq	%rax, %r14
	jb	.LBB7_37
.LBB7_43:                               #   in Loop: Header=BB7_18 Depth=1
	incq	%rbp
	movq	%rbp, %rax
	andq	$-16, %rax
	leaq	-16(%rax), %rcx
	movq	%rcx, %rdx
	shrq	$4, %rdx
	incq	%rdx
	testq	%rcx, %rcx
	je	.LBB7_44
# %bb.45:                               #   in Loop: Header=BB7_18 Depth=1
	movq	%rdx, %rsi
	andq	$-2, %rsi
	negq	%rsi
	xorl	%ecx, %ecx
	.p2align	4, 0x90
.LBB7_46:                               #   Parent Loop BB7_18 Depth=1
                                        # =>  This Inner Loop Header: Depth=2
	vmovups	%ymm4, (%r15,%rcx,8)
	vmovups	%ymm4, 32(%r15,%rcx,8)
	vmovups	%ymm4, 64(%r15,%rcx,8)
	vmovups	%ymm4, 96(%r15,%rcx,8)
	vmovups	(%r14,%rcx,8), %ymm0
	vmovups	32(%r14,%rcx,8), %ymm1
	vmovups	64(%r14,%rcx,8), %ymm2
	vmovups	96(%r14,%rcx,8), %ymm3
	vmovups	%ymm0, (%r15,%rcx,8)
	vmovups	%ymm1, 32(%r15,%rcx,8)
	vmovups	%ymm2, 64(%r15,%rcx,8)
	vmovups	%ymm3, 96(%r15,%rcx,8)
	vmovups	%ymm4, (%r14,%rcx,8)
	vmovups	%ymm4, 32(%r14,%rcx,8)
	vmovups	%ymm4, 64(%r14,%rcx,8)
	vmovups	%ymm4, 96(%r14,%rcx,8)
	vmovups	%ymm4, 128(%r15,%rcx,8)
	vmovups	%ymm4, 160(%r15,%rcx,8)
	vmovups	%ymm4, 192(%r15,%rcx,8)
	vmovups	%ymm4, 224(%r15,%rcx,8)
	vmovups	128(%r14,%rcx,8), %ymm0
	vmovups	160(%r14,%rcx,8), %ymm1
	vmovups	192(%r14,%rcx,8), %ymm2
	vmovups	224(%r14,%rcx,8), %ymm3
	vmovups	%ymm0, 128(%r15,%rcx,8)
	vmovups	%ymm1, 160(%r15,%rcx,8)
	vmovups	%ymm2, 192(%r15,%rcx,8)
	vmovups	%ymm3, 224(%r15,%rcx,8)
	vmovups	%ymm4, 128(%r14,%rcx,8)
	vmovups	%ymm4, 160(%r14,%rcx,8)
	vmovups	%ymm4, 192(%r14,%rcx,8)
	vmovups	%ymm4, 224(%r14,%rcx,8)
	addq	$32, %rcx
	addq	$2, %rsi
	jne	.LBB7_46
# %bb.47:                               #   in Loop: Header=BB7_18 Depth=1
	testb	$1, %dl
	je	.LBB7_49
.LBB7_48:                               #   in Loop: Header=BB7_18 Depth=1
	vmovups	%ymm4, (%r15,%rcx,8)
	vmovups	%ymm4, 32(%r15,%rcx,8)
	vmovups	%ymm4, 64(%r15,%rcx,8)
	vmovups	%ymm4, 96(%r15,%rcx,8)
	vmovups	(%r14,%rcx,8), %ymm0
	vmovups	32(%r14,%rcx,8), %ymm1
	vmovups	64(%r14,%rcx,8), %ymm2
	vmovups	96(%r14,%rcx,8), %ymm3
	vmovups	%ymm0, (%r15,%rcx,8)
	vmovups	%ymm1, 32(%r15,%rcx,8)
	vmovups	%ymm2, 64(%r15,%rcx,8)
	vmovups	%ymm3, 96(%r15,%rcx,8)
	vmovups	%ymm4, (%r14,%rcx,8)
	vmovups	%ymm4, 32(%r14,%rcx,8)
	vmovups	%ymm4, 64(%r14,%rcx,8)
	vmovups	%ymm4, 96(%r14,%rcx,8)
.LBB7_49:                               #   in Loop: Header=BB7_18 Depth=1
	cmpq	%rax, %rbp
	jne	.LBB7_50
# %bb.51:                               #   in Loop: Header=BB7_18 Depth=1
	leaq	(%r15,%rax,8), %rax
	addq	$-8, %rax
	jmp	.LBB7_52
.LBB7_56:                               #   in Loop: Header=BB7_18 Depth=1
	leaq	8(%r15), %rbx
	movq	56(%rsp), %r13                  # 8-byte Reload
	testq	%r14, %r14
	jne	.LBB7_58
	jmp	.LBB7_59
.LBB7_50:                               #   in Loop: Header=BB7_18 Depth=1
	leaq	(%r15,%rax,8), %rdx
	leaq	(%r14,%rax,8), %rcx
	.p2align	4, 0x90
.LBB7_37:                               #   in Loop: Header=BB7_18 Depth=1
	addq	$-8, %rdx
	.p2align	4, 0x90
.LBB7_38:                               #   Parent Loop BB7_18 Depth=1
                                        # =>  This Inner Loop Header: Depth=2
	leaq	8(%rdx), %rax
	movq	$0, 8(%rdx)
	movq	(%rcx), %rsi
	movq	%rsi, 8(%rdx)
	movq	$0, (%rcx)
	addq	$8, %rcx
	movq	%rax, %rdx
	cmpq	%rcx, %rbx
	jne	.LBB7_38
.LBB7_52:                               #   in Loop: Header=BB7_18 Depth=1
	addq	$16, %rax
	movq	%r14, %rcx
	movq	56(%rsp), %r13                  # 8-byte Reload
	.p2align	4, 0x90
.LBB7_53:                               #   Parent Loop BB7_18 Depth=1
                                        # =>  This Inner Loop Header: Depth=2
	cmpq	$0, (%rcx)
	jne	.LBB7_86
# %bb.54:                               #   in Loop: Header=BB7_53 Depth=2
	addq	$8, %rcx
	cmpq	%rcx, %rbx
	jne	.LBB7_53
# %bb.55:                               #   in Loop: Header=BB7_18 Depth=1
	movq	%rax, %rbx
	testq	%r14, %r14
	je	.LBB7_59
.LBB7_58:                               #   in Loop: Header=BB7_18 Depth=1
	movq	%r14, %rdi
	vzeroupper
	callq	_ZdlPv
.LBB7_59:                               #   in Loop: Header=BB7_18 Depth=1
	movq	128(%rsp), %rax                 # 8-byte Reload
	leaq	(%r15,%rax,8), %rsi
	movq	%r15, %r14
	movl	20(%rsp), %r15d                 # 4-byte Reload
	addl	%r13d, %r12d
	cmpl	%r12d, %r15d
	ja	.LBB7_18
	jmp	.LBB7_15
.LBB7_44:                               #   in Loop: Header=BB7_18 Depth=1
	xorl	%ecx, %ecx
	testb	$1, %dl
	jne	.LBB7_48
	jmp	.LBB7_49
.LBB7_15:
	cmpq	%rbx, %r14
	je	.LBB7_16
# %bb.65:
	movq	%r14, %rbp
	movq	64(%rsp), %r15                  # 8-byte Reload
	.p2align	4, 0x90
.LBB7_66:                               # =>This Inner Loop Header: Depth=1
.Ltmp76:
	movq	%rbp, %rdi
	vzeroupper
	callq	_ZNSt6thread4joinEv
.Ltmp77:
# %bb.67:                               #   in Loop: Header=BB7_66 Depth=1
	addq	$8, %rbp
	cmpq	%rbp, %rbx
	jne	.LBB7_66
# %bb.68:
	xorl	%r12d, %r12d
	jmp	.LBB7_69
.LBB7_9:
	xorl	%r14d, %r14d
	xorl	%ebx, %ebx
.LBB7_16:
	movq	64(%rsp), %r15                  # 8-byte Reload
	movb	$1, %r12b
.LBB7_69:
.Ltmp79:
	leaq	96(%rsp), %rdi
	vzeroupper
	callq	_ZN11Chronometer4stopEv
.Ltmp80:
# %bb.70:
	testq	%r15, %r15
	je	.LBB7_73
# %bb.71:
.Ltmp81:
	leaq	96(%rsp), %rdi
	callq	_ZN11Chronometer7getTimeEv
.Ltmp82:
# %bb.72:
	vmovss	%xmm0, (%r15)
.LBB7_73:
	movq	72(%rsp), %rbp
	testb	%r12b, %r12b
	jne	.LBB7_77
# %bb.74:
	movq	%r14, %rax
	.p2align	4, 0x90
.LBB7_76:                               # =>This Inner Loop Header: Depth=1
	cmpq	$0, (%rax)
	jne	.LBB7_86
# %bb.75:                               #   in Loop: Header=BB7_76 Depth=1
	addq	$8, %rax
	cmpq	%rax, %rbx
	jne	.LBB7_76
.LBB7_77:
	testq	%r14, %r14
	je	.LBB7_79
# %bb.78:
	movq	%r14, %rdi
	callq	_ZdlPv
.LBB7_79:
	movq	%rbp, %rax
	addq	$136, %rsp
	.cfi_def_cfa_offset 56
	popq	%rbx
	.cfi_def_cfa_offset 48
	popq	%r12
	.cfi_def_cfa_offset 40
	popq	%r13
	.cfi_def_cfa_offset 32
	popq	%r14
	.cfi_def_cfa_offset 24
	popq	%r15
	.cfi_def_cfa_offset 16
	popq	%rbp
	.cfi_def_cfa_offset 8
	retq
.LBB7_91:
	.cfi_def_cfa_offset 192
	movl	$.L.str.4, %edi
	movl	$.L.str.1, %esi
	movl	$.L__PRETTY_FUNCTION__._ZNK6TensorIfE18convolveParallelCoERKS0_jjjPf, %ecx
	movl	$507, %edx                      # imm = 0x1FB
	callq	__assert_fail
.LBB7_11:
.Ltmp53:
	jmp	.LBB7_12
.LBB7_10:
.Ltmp50:
.LBB7_12:
	movq	%rax, %rbp
	movq	%rbx, %rax
	addq	$40, %rax
	movq	(%rax), %rdi
	testq	%rdi, %rdi
	je	.LBB7_14
# %bb.13:
	callq	_ZdlPv
.LBB7_14:
	movq	%rbx, %rdi
	jmp	.LBB7_89
.LBB7_80:
.Ltmp83:
	jmp	.LBB7_81
.LBB7_61:
.Ltmp66:
	movq	%rax, %rbp
	jmp	.LBB7_62
.LBB7_39:
.Ltmp69:
	movq	%rax, %rbp
	movq	(%rsp), %rdi
	testq	%rdi, %rdi
	je	.LBB7_62
# %bb.40:
	movq	(%rdi), %rax
	callq	*8(%rax)
.LBB7_62:
	movq	%rbp, %rdi
	callq	__cxa_begin_catch
	movq	%r15, %rdi
	callq	_ZdlPv
.Ltmp70:
	callq	__cxa_rethrow
.Ltmp71:
# %bb.63:
.LBB7_60:
.Ltmp72:
	movq	%rax, %rbp
.Ltmp73:
	callq	__cxa_end_catch
.Ltmp74:
	jmp	.LBB7_82
.LBB7_92:
.Ltmp75:
	movq	%rax, %rdi
	callq	__clang_call_terminate
.LBB7_93:
.Ltmp78:
	jmp	.LBB7_81
.LBB7_25:
.Ltmp60:
	movq	%rax, %rbp
	movq	(%rsp), %rdi
	testq	%rdi, %rdi
	je	.LBB7_82
# %bb.26:
	movq	(%rdi), %rax
	callq	*8(%rax)
	jmp	.LBB7_82
.LBB7_64:
.Ltmp63:
.LBB7_81:
	movq	%rax, %rbp
.LBB7_82:
	cmpq	%rbx, %r14
	je	.LBB7_87
# %bb.83:
	movq	%r14, %rax
	.p2align	4, 0x90
.LBB7_85:                               # =>This Inner Loop Header: Depth=1
	cmpq	$0, (%rax)
	jne	.LBB7_86
# %bb.84:                               #   in Loop: Header=BB7_85 Depth=1
	addq	$8, %rax
	cmpq	%rax, %rbx
	jne	.LBB7_85
.LBB7_87:
	testq	%r14, %r14
	je	.LBB7_90
# %bb.88:
	movq	%r14, %rdi
.LBB7_89:
	callq	_ZdlPv
.LBB7_90:
	movq	%rbp, %rdi
	callq	_Unwind_Resume@PLT
.LBB7_86:
	vzeroupper
	callq	_ZSt9terminatev
.Lfunc_end7:
	.size	_ZNK6TensorIfE18convolveParallelCoERKS0_jjjPf, .Lfunc_end7-_ZNK6TensorIfE18convolveParallelCoERKS0_jjjPf
	.cfi_endproc
	.section	.gcc_except_table._ZNK6TensorIfE18convolveParallelCoERKS0_jjjPf,"aG",@progbits,_ZNK6TensorIfE18convolveParallelCoERKS0_jjjPf,comdat
	.p2align	2
GCC_except_table7:
.Lexception2:
	.byte	255                             # @LPStart Encoding = omit
	.byte	3                               # @TType Encoding = udata4
	.uleb128 .Lttbase2-.Lttbaseref2
.Lttbaseref2:
	.byte	1                               # Call site Encoding = uleb128
	.uleb128 .Lcst_end2-.Lcst_begin2
.Lcst_begin2:
	.uleb128 .Lfunc_begin2-.Lfunc_begin2    # >> Call Site 1 <<
	.uleb128 .Ltmp48-.Lfunc_begin2          #   Call between .Lfunc_begin2 and .Ltmp48
	.byte	0                               #     has no landing pad
	.byte	0                               #   On action: cleanup
	.uleb128 .Ltmp48-.Lfunc_begin2          # >> Call Site 2 <<
	.uleb128 .Ltmp49-.Ltmp48                #   Call between .Ltmp48 and .Ltmp49
	.uleb128 .Ltmp50-.Lfunc_begin2          #     jumps to .Ltmp50
	.byte	0                               #   On action: cleanup
	.uleb128 .Ltmp51-.Lfunc_begin2          # >> Call Site 3 <<
	.uleb128 .Ltmp52-.Ltmp51                #   Call between .Ltmp51 and .Ltmp52
	.uleb128 .Ltmp53-.Lfunc_begin2          #     jumps to .Ltmp53
	.byte	0                               #   On action: cleanup
	.uleb128 .Ltmp54-.Lfunc_begin2          # >> Call Site 4 <<
	.uleb128 .Ltmp55-.Ltmp54                #   Call between .Ltmp54 and .Ltmp55
	.uleb128 .Ltmp83-.Lfunc_begin2          #     jumps to .Ltmp83
	.byte	0                               #   On action: cleanup
	.uleb128 .Ltmp56-.Lfunc_begin2          # >> Call Site 5 <<
	.uleb128 .Ltmp57-.Ltmp56                #   Call between .Ltmp56 and .Ltmp57
	.uleb128 .Ltmp63-.Lfunc_begin2          #     jumps to .Ltmp63
	.byte	0                               #   On action: cleanup
	.uleb128 .Ltmp58-.Lfunc_begin2          # >> Call Site 6 <<
	.uleb128 .Ltmp59-.Ltmp58                #   Call between .Ltmp58 and .Ltmp59
	.uleb128 .Ltmp60-.Lfunc_begin2          #     jumps to .Ltmp60
	.byte	0                               #   On action: cleanup
	.uleb128 .Ltmp59-.Lfunc_begin2          # >> Call Site 7 <<
	.uleb128 .Ltmp61-.Ltmp59                #   Call between .Ltmp59 and .Ltmp61
	.byte	0                               #     has no landing pad
	.byte	0                               #   On action: cleanup
	.uleb128 .Ltmp61-.Lfunc_begin2          # >> Call Site 8 <<
	.uleb128 .Ltmp62-.Ltmp61                #   Call between .Ltmp61 and .Ltmp62
	.uleb128 .Ltmp63-.Lfunc_begin2          #     jumps to .Ltmp63
	.byte	0                               #   On action: cleanup
	.uleb128 .Ltmp64-.Lfunc_begin2          # >> Call Site 9 <<
	.uleb128 .Ltmp65-.Ltmp64                #   Call between .Ltmp64 and .Ltmp65
	.uleb128 .Ltmp66-.Lfunc_begin2          #     jumps to .Ltmp66
	.byte	1                               #   On action: 1
	.uleb128 .Ltmp67-.Lfunc_begin2          # >> Call Site 10 <<
	.uleb128 .Ltmp68-.Ltmp67                #   Call between .Ltmp67 and .Ltmp68
	.uleb128 .Ltmp69-.Lfunc_begin2          #     jumps to .Ltmp69
	.byte	1                               #   On action: 1
	.uleb128 .Ltmp68-.Lfunc_begin2          # >> Call Site 11 <<
	.uleb128 .Ltmp76-.Ltmp68                #   Call between .Ltmp68 and .Ltmp76
	.byte	0                               #     has no landing pad
	.byte	0                               #   On action: cleanup
	.uleb128 .Ltmp76-.Lfunc_begin2          # >> Call Site 12 <<
	.uleb128 .Ltmp77-.Ltmp76                #   Call between .Ltmp76 and .Ltmp77
	.uleb128 .Ltmp78-.Lfunc_begin2          #     jumps to .Ltmp78
	.byte	0                               #   On action: cleanup
	.uleb128 .Ltmp79-.Lfunc_begin2          # >> Call Site 13 <<
	.uleb128 .Ltmp82-.Ltmp79                #   Call between .Ltmp79 and .Ltmp82
	.uleb128 .Ltmp83-.Lfunc_begin2          #     jumps to .Ltmp83
	.byte	0                               #   On action: cleanup
	.uleb128 .Ltmp82-.Lfunc_begin2          # >> Call Site 14 <<
	.uleb128 .Ltmp70-.Ltmp82                #   Call between .Ltmp82 and .Ltmp70
	.byte	0                               #     has no landing pad
	.byte	0                               #   On action: cleanup
	.uleb128 .Ltmp70-.Lfunc_begin2          # >> Call Site 15 <<
	.uleb128 .Ltmp71-.Ltmp70                #   Call between .Ltmp70 and .Ltmp71
	.uleb128 .Ltmp72-.Lfunc_begin2          #     jumps to .Ltmp72
	.byte	0                               #   On action: cleanup
	.uleb128 .Ltmp73-.Lfunc_begin2          # >> Call Site 16 <<
	.uleb128 .Ltmp74-.Ltmp73                #   Call between .Ltmp73 and .Ltmp74
	.uleb128 .Ltmp75-.Lfunc_begin2          #     jumps to .Ltmp75
	.byte	1                               #   On action: 1
	.uleb128 .Ltmp74-.Lfunc_begin2          # >> Call Site 17 <<
	.uleb128 .Lfunc_end7-.Ltmp74            #   Call between .Ltmp74 and .Lfunc_end7
	.byte	0                               #     has no landing pad
	.byte	0                               #   On action: cleanup
.Lcst_end2:
	.byte	1                               # >> Action Record 1 <<
                                        #   Catch TypeInfo 1
	.byte	0                               #   No further actions
	.p2align	2
                                        # >> Catch TypeInfos <<
	.long	0                               # TypeInfo 1
.Lttbase2:
	.p2align	2
                                        # -- End function
	.section	.rodata.cst4,"aM",@progbits,4
	.p2align	2                               # -- Begin function _ZNK6TensorIfE18convolveParallelEoERKS0_jjjPf
.LCPI8_0:
	.long	0x80000000                      #  -0
.LCPI8_1:
	.long	0x3effffff                      #  0.49999997
	.section	.text._ZNK6TensorIfE18convolveParallelEoERKS0_jjjPf,"axG",@progbits,_ZNK6TensorIfE18convolveParallelEoERKS0_jjjPf,comdat
	.weak	_ZNK6TensorIfE18convolveParallelEoERKS0_jjjPf
	.p2align	4, 0x90
	.type	_ZNK6TensorIfE18convolveParallelEoERKS0_jjjPf,@function
_ZNK6TensorIfE18convolveParallelEoERKS0_jjjPf: # 
.Lfunc_begin3:
	.cfi_startproc
	.cfi_personality 3, __gxx_personality_v0
	.cfi_lsda 3, .Lexception3
# %bb.0:
	pushq	%rbp
	.cfi_def_cfa_offset 16
	pushq	%r15
	.cfi_def_cfa_offset 24
	pushq	%r14
	.cfi_def_cfa_offset 32
	pushq	%r13
	.cfi_def_cfa_offset 40
	pushq	%r12
	.cfi_def_cfa_offset 48
	pushq	%rbx
	.cfi_def_cfa_offset 56
	subq	$136, %rsp
	.cfi_def_cfa_offset 192
	.cfi_offset %rbx, -56
	.cfi_offset %r12, -48
	.cfi_offset %r13, -40
	.cfi_offset %r14, -32
	.cfi_offset %r15, -24
	.cfi_offset %rbp, -16
	movq	%r9, 72(%rsp)                   # 8-byte Spill
                                        # kill: def $r8d killed $r8d def $r8
	movq	%r8, 16(%rsp)                   # 8-byte Spill
	movl	%edx, 52(%rsp)
	movl	%ecx, 48(%rsp)
	movl	28(%rdi), %eax
	cmpl	28(%rsi), %eax
	jne	.LBB8_92
# %bb.1:
	movl	%edx, %ebp
	movl	16(%rdi), %edx
	movl	%edx, 12(%rsp)                  # 4-byte Spill
	movl	%eax, 44(%rsp)
	movl	16(%rsi), %r12d
	addl	%ecx, %ecx
	movl	20(%rdi), %eax
	addl	%ecx, %eax
	movq	%rdi, 80(%rsp)                  # 8-byte Spill
	addl	24(%rdi), %ecx
	movl	20(%rsi), %edx
	movl	%edx, 40(%rsp)
	movq	%rsi, 88(%rsp)                  # 8-byte Spill
	movl	24(%rsi), %esi
	movl	%esi, 36(%rsp)
	movl	%r12d, 32(%rsp)
	subl	%edx, %eax
	xorl	%edx, %edx
	divl	%ebp
	movl	%eax, %r14d
	incl	%r14d
	movl	%r14d, 28(%rsp)
	subl	%esi, %ecx
	movl	%ecx, %eax
	xorl	%edx, %edx
	divl	%ebp
	movl	%eax, %r15d
	incl	%r15d
	movl	%r15d, 24(%rsp)
	movl	$72, %edi
	callq	_Znwm
	movq	%rax, %rbx
	movq	$_ZTV6TensorIfE+16, (%rax)
	movl	$1, 16(%rax)
	movl	%r14d, 20(%rax)
	movl	%r15d, 24(%rax)
	movl	%r12d, 28(%rax)
	vxorps	%xmm0, %xmm0, %xmm0
	vmovups	%xmm0, 40(%rax)
	movl	$1, 96(%rsp)
	movq	$0, 56(%rax)
	movb	$1, 64(%rax)
	movl	%r14d, %eax
	imull	%r12d, %eax
	imull	%r15d, %eax
	movl	%eax, 32(%rbx)
.Ltmp84:
	movl	$16, %edi
	callq	_Znwm
.Ltmp85:
# %bb.2:
	movq	%rax, %rbp
	movl	$1, (%rax)
	movl	%r14d, 4(%rax)
	movl	%r15d, 8(%rax)
	movl	%r12d, 12(%rax)
	movq	40(%rbx), %rdi
	testq	%rdi, %rdi
	je	.LBB8_4
# %bb.3:
	callq	_ZdlPv
.LBB8_4:
	movq	%rbp, 40(%rbx)
	addq	$16, %rbp
	movq	%rbp, 48(%rbx)
	movq	%rbp, 56(%rbx)
.Ltmp87:
	leaq	96(%rsp), %rsi
	movq	%rbx, %rdi
	callq	_ZN6TensorIfE9init_dataERKN6tensor4initE
.Ltmp88:
	movl	12(%rsp), %r15d                 # 4-byte Reload
# %bb.5:
	movq	%rbx, 64(%rsp)
	movl	$1, %r13d
	cmpl	16(%rsp), %r15d                 # 4-byte Folded Reload
	jb	.LBB8_7
# %bb.6:
	movl	%r15d, %eax
	vcvtsi2ss	%rax, %xmm1, %xmm0
	movl	16(%rsp), %eax                  # 4-byte Reload
	vcvtsi2ss	%rax, %xmm1, %xmm1
	vdivss	%xmm1, %xmm0, %xmm0
	vbroadcastss	.LCPI8_0(%rip), %xmm1   # xmm1 = [-0.0E+0,-0.0E+0,-0.0E+0,-0.0E+0]
	vandps	%xmm1, %xmm0, %xmm1
	vbroadcastss	.LCPI8_1(%rip), %xmm2   # xmm2 = [4.9999997E-1,4.9999997E-1,4.9999997E-1,4.9999997E-1]
	vorps	%xmm1, %xmm2, %xmm1
	vaddss	%xmm1, %xmm0, %xmm0
	vroundss	$11, %xmm0, %xmm0, %xmm0
	vcvttss2si	%xmm0, %r13
.LBB8_7:
	vxorps	%xmm0, %xmm0, %xmm0
	vmovaps	%xmm0, 96(%rsp)
	movb	$1, 112(%rsp)
	xorl	%ebx, %ebx
.Ltmp90:
	leaq	96(%rsp), %rdi
	xorl	%r14d, %r14d
	callq	_ZN11Chronometer5startEv
.Ltmp91:
# %bb.8:
	xorl	%r12d, %r12d
	testl	%r15d, %r15d
	je	.LBB8_9
# %bb.27:
	movq	16(%rsp), %rax                  # 8-byte Reload
	decl	%eax
	movq	%rax, 16(%rsp)                  # 8-byte Spill
	xorl	%r14d, %r14d
	xorl	%ebx, %ebx
	xorl	%esi, %esi
	jmp	.LBB8_28
	.p2align	4, 0x90
.LBB8_33:                               #   in Loop: Header=BB8_28 Depth=1
	addq	$8, %rbx
	movq	%rbp, %rsi
	addl	%r13d, %r12d
	cmpl	%r12d, %r15d
	jbe	.LBB8_22
.LBB8_28:                               # =>This Loop Header: Depth=1
                                        #     Child Loop BB8_56 Depth 2
                                        #     Child Loop BB8_48 Depth 2
                                        #     Child Loop BB8_63 Depth 2
	movl	%r13d, %eax
	movq	%rbx, %rbp
	subq	%r14, %rbp
	movq	%rbp, %r13
	sarq	$3, %r13
	movl	%r15d, %ecx
	subl	%r12d, %ecx
	cmpq	16(%rsp), %r13                  # 8-byte Folded Reload
	cmovnel	%eax, %ecx
	movq	%rcx, 56(%rsp)                  # 8-byte Spill
	cmpq	%rsi, %rbx
	je	.LBB8_37
# %bb.29:                               #   in Loop: Header=BB8_28 Depth=1
	movq	%rsi, %rbp
	movq	$0, (%rbx)
.Ltmp92:
	movl	$104, %edi
	vzeroupper
	callq	_Znwm
.Ltmp93:
# %bb.30:                               #   in Loop: Header=BB8_28 Depth=1
	movq	$_ZTVNSt6thread11_State_implINS_8_InvokerISt5tupleIJZNK6TensorIfE18convolveParallelEoERKS4_jjjPfEUlvE_EEEEEE+16, (%rax)
	movl	%r12d, 8(%rax)
	movq	56(%rsp), %r13                  # 8-byte Reload
	movl	%r13d, 12(%rax)
	movq	80(%rsp), %rcx                  # 8-byte Reload
	movq	%rcx, 16(%rax)
	leaq	64(%rsp), %rcx
	movq	%rcx, 24(%rax)
	movq	88(%rsp), %rcx                  # 8-byte Reload
	movq	%rcx, 32(%rax)
	leaq	52(%rsp), %rcx
	movq	%rcx, 40(%rax)
	leaq	48(%rsp), %rcx
	movq	%rcx, 48(%rax)
	leaq	32(%rsp), %rcx
	movq	%rcx, 56(%rax)
	leaq	44(%rsp), %rcx
	movq	%rcx, 64(%rax)
	leaq	28(%rsp), %rcx
	movq	%rcx, 72(%rax)
	leaq	40(%rsp), %rcx
	movq	%rcx, 80(%rax)
	leaq	24(%rsp), %rcx
	movq	%rcx, 88(%rax)
	leaq	36(%rsp), %rcx
	movq	%rcx, 96(%rax)
	movq	%rax, (%rsp)
.Ltmp94:
	movl	$pthread_create, %edx
	movq	%rbx, %rdi
	movq	%rsp, %rsi
	callq	_ZNSt6thread15_M_start_threadESt10unique_ptrINS_6_StateESt14default_deleteIS1_EEPFvvE
.Ltmp95:
# %bb.31:                               #   in Loop: Header=BB8_28 Depth=1
	movq	(%rsp), %rdi
	testq	%rdi, %rdi
	movl	12(%rsp), %r15d                 # 4-byte Reload
	je	.LBB8_33
# %bb.32:                               #   in Loop: Header=BB8_28 Depth=1
	movq	(%rdi), %rax
	callq	*8(%rax)
	jmp	.LBB8_33
	.p2align	4, 0x90
.LBB8_37:                               #   in Loop: Header=BB8_28 Depth=1
	testq	%rbp, %rbp
	movq	%r13, %rax
	movl	$1, %ecx
	cmoveq	%rcx, %rax
	leaq	(%rax,%r13), %rdx
	movabsq	$2305843009213693951, %rcx      # imm = 0x1FFFFFFFFFFFFFFF
	cmpq	%rcx, %rdx
	cmovaq	%rcx, %rdx
	addq	%r13, %rax
	cmovbq	%rcx, %rdx
	testq	%rdx, %rdx
	movq	%rdx, 128(%rsp)                 # 8-byte Spill
	je	.LBB8_38
# %bb.39:                               #   in Loop: Header=BB8_28 Depth=1
	leaq	(,%rdx,8), %rdi
.Ltmp97:
	vzeroupper
	callq	_Znwm
.Ltmp98:
# %bb.40:                               #   in Loop: Header=BB8_28 Depth=1
	movq	%rax, %r15
	jmp	.LBB8_41
.LBB8_38:                               #   in Loop: Header=BB8_28 Depth=1
	xorl	%r15d, %r15d
.LBB8_41:                               #   in Loop: Header=BB8_28 Depth=1
	movq	$0, (%r15,%r13,8)
.Ltmp100:
	movl	$104, %edi
	vzeroupper
	callq	_Znwm
.Ltmp101:
# %bb.42:                               #   in Loop: Header=BB8_28 Depth=1
	movq	$_ZTVNSt6thread11_State_implINS_8_InvokerISt5tupleIJZNK6TensorIfE18convolveParallelEoERKS4_jjjPfEUlvE_EEEEEE+16, (%rax)
	movl	%r12d, 8(%rax)
	movq	56(%rsp), %rcx                  # 8-byte Reload
	movl	%ecx, 12(%rax)
	movq	80(%rsp), %rcx                  # 8-byte Reload
	movq	%rcx, 16(%rax)
	leaq	64(%rsp), %rcx
	movq	%rcx, 24(%rax)
	movq	88(%rsp), %rcx                  # 8-byte Reload
	movq	%rcx, 32(%rax)
	leaq	52(%rsp), %rcx
	movq	%rcx, 40(%rax)
	leaq	48(%rsp), %rcx
	movq	%rcx, 48(%rax)
	leaq	32(%rsp), %rcx
	movq	%rcx, 56(%rax)
	leaq	44(%rsp), %rcx
	movq	%rcx, 64(%rax)
	leaq	28(%rsp), %rcx
	movq	%rcx, 72(%rax)
	leaq	40(%rsp), %rcx
	movq	%rcx, 80(%rax)
	leaq	24(%rsp), %rcx
	movq	%rcx, 88(%rax)
	leaq	36(%rsp), %rcx
	movq	%rcx, 96(%rax)
	movq	%rax, (%rsp)
	leaq	(%r15,%r13,8), %rdi
.Ltmp103:
	movl	$pthread_create, %edx
	movq	%rsp, %rsi
	callq	_ZNSt6thread15_M_start_threadESt10unique_ptrINS_6_StateESt14default_deleteIS1_EEPFvvE
.Ltmp104:
# %bb.43:                               #   in Loop: Header=BB8_28 Depth=1
	movq	(%rsp), %rdi
	testq	%rdi, %rdi
	je	.LBB8_45
# %bb.44:                               #   in Loop: Header=BB8_28 Depth=1
	movq	(%rdi), %rax
	callq	*8(%rax)
.LBB8_45:                               #   in Loop: Header=BB8_28 Depth=1
	cmpq	%rbx, %r14
	je	.LBB8_66
# %bb.46:                               #   in Loop: Header=BB8_28 Depth=1
	addq	$-8, %rbp
	movq	%r15, %rdx
	movq	%r14, %rcx
	cmpq	$119, %rbp
	vxorps	%xmm4, %xmm4, %xmm4
	jbe	.LBB8_47
# %bb.51:                               #   in Loop: Header=BB8_28 Depth=1
	shrq	$3, %rbp
	leaq	(%r14,%rbp,8), %rax
	addq	$8, %rax
	cmpq	%rax, %r15
	jae	.LBB8_53
# %bb.52:                               #   in Loop: Header=BB8_28 Depth=1
	leaq	(%r15,%rbp,8), %rax
	addq	$8, %rax
	movq	%r15, %rdx
	movq	%r14, %rcx
	cmpq	%rax, %r14
	jb	.LBB8_47
.LBB8_53:                               #   in Loop: Header=BB8_28 Depth=1
	incq	%rbp
	movq	%rbp, %rax
	andq	$-16, %rax
	leaq	-16(%rax), %rcx
	movq	%rcx, %rdx
	shrq	$4, %rdx
	incq	%rdx
	testq	%rcx, %rcx
	je	.LBB8_54
# %bb.55:                               #   in Loop: Header=BB8_28 Depth=1
	movq	%rdx, %rsi
	andq	$-2, %rsi
	negq	%rsi
	xorl	%ecx, %ecx
	.p2align	4, 0x90
.LBB8_56:                               #   Parent Loop BB8_28 Depth=1
                                        # =>  This Inner Loop Header: Depth=2
	vmovups	%ymm4, (%r15,%rcx,8)
	vmovups	%ymm4, 32(%r15,%rcx,8)
	vmovups	%ymm4, 64(%r15,%rcx,8)
	vmovups	%ymm4, 96(%r15,%rcx,8)
	vmovups	(%r14,%rcx,8), %ymm0
	vmovups	32(%r14,%rcx,8), %ymm1
	vmovups	64(%r14,%rcx,8), %ymm2
	vmovups	96(%r14,%rcx,8), %ymm3
	vmovups	%ymm0, (%r15,%rcx,8)
	vmovups	%ymm1, 32(%r15,%rcx,8)
	vmovups	%ymm2, 64(%r15,%rcx,8)
	vmovups	%ymm3, 96(%r15,%rcx,8)
	vmovups	%ymm4, (%r14,%rcx,8)
	vmovups	%ymm4, 32(%r14,%rcx,8)
	vmovups	%ymm4, 64(%r14,%rcx,8)
	vmovups	%ymm4, 96(%r14,%rcx,8)
	vmovups	%ymm4, 128(%r15,%rcx,8)
	vmovups	%ymm4, 160(%r15,%rcx,8)
	vmovups	%ymm4, 192(%r15,%rcx,8)
	vmovups	%ymm4, 224(%r15,%rcx,8)
	vmovups	128(%r14,%rcx,8), %ymm0
	vmovups	160(%r14,%rcx,8), %ymm1
	vmovups	192(%r14,%rcx,8), %ymm2
	vmovups	224(%r14,%rcx,8), %ymm3
	vmovups	%ymm0, 128(%r15,%rcx,8)
	vmovups	%ymm1, 160(%r15,%rcx,8)
	vmovups	%ymm2, 192(%r15,%rcx,8)
	vmovups	%ymm3, 224(%r15,%rcx,8)
	vmovups	%ymm4, 128(%r14,%rcx,8)
	vmovups	%ymm4, 160(%r14,%rcx,8)
	vmovups	%ymm4, 192(%r14,%rcx,8)
	vmovups	%ymm4, 224(%r14,%rcx,8)
	addq	$32, %rcx
	addq	$2, %rsi
	jne	.LBB8_56
# %bb.57:                               #   in Loop: Header=BB8_28 Depth=1
	testb	$1, %dl
	je	.LBB8_59
.LBB8_58:                               #   in Loop: Header=BB8_28 Depth=1
	vmovups	%ymm4, (%r15,%rcx,8)
	vmovups	%ymm4, 32(%r15,%rcx,8)
	vmovups	%ymm4, 64(%r15,%rcx,8)
	vmovups	%ymm4, 96(%r15,%rcx,8)
	vmovups	(%r14,%rcx,8), %ymm0
	vmovups	32(%r14,%rcx,8), %ymm1
	vmovups	64(%r14,%rcx,8), %ymm2
	vmovups	96(%r14,%rcx,8), %ymm3
	vmovups	%ymm0, (%r15,%rcx,8)
	vmovups	%ymm1, 32(%r15,%rcx,8)
	vmovups	%ymm2, 64(%r15,%rcx,8)
	vmovups	%ymm3, 96(%r15,%rcx,8)
	vmovups	%ymm4, (%r14,%rcx,8)
	vmovups	%ymm4, 32(%r14,%rcx,8)
	vmovups	%ymm4, 64(%r14,%rcx,8)
	vmovups	%ymm4, 96(%r14,%rcx,8)
.LBB8_59:                               #   in Loop: Header=BB8_28 Depth=1
	cmpq	%rax, %rbp
	jne	.LBB8_60
# %bb.61:                               #   in Loop: Header=BB8_28 Depth=1
	leaq	(%r15,%rax,8), %rax
	addq	$-8, %rax
	jmp	.LBB8_62
.LBB8_66:                               #   in Loop: Header=BB8_28 Depth=1
	leaq	8(%r15), %rbx
	movq	56(%rsp), %r13                  # 8-byte Reload
	testq	%r14, %r14
	jne	.LBB8_68
	jmp	.LBB8_69
.LBB8_60:                               #   in Loop: Header=BB8_28 Depth=1
	leaq	(%r15,%rax,8), %rdx
	leaq	(%r14,%rax,8), %rcx
	.p2align	4, 0x90
.LBB8_47:                               #   in Loop: Header=BB8_28 Depth=1
	addq	$-8, %rdx
	.p2align	4, 0x90
.LBB8_48:                               #   Parent Loop BB8_28 Depth=1
                                        # =>  This Inner Loop Header: Depth=2
	leaq	8(%rdx), %rax
	movq	$0, 8(%rdx)
	movq	(%rcx), %rsi
	movq	%rsi, 8(%rdx)
	movq	$0, (%rcx)
	addq	$8, %rcx
	movq	%rax, %rdx
	cmpq	%rcx, %rbx
	jne	.LBB8_48
.LBB8_62:                               #   in Loop: Header=BB8_28 Depth=1
	addq	$16, %rax
	movq	%r14, %rcx
	movq	56(%rsp), %r13                  # 8-byte Reload
	.p2align	4, 0x90
.LBB8_63:                               #   Parent Loop BB8_28 Depth=1
                                        # =>  This Inner Loop Header: Depth=2
	cmpq	$0, (%rcx)
	jne	.LBB8_87
# %bb.64:                               #   in Loop: Header=BB8_63 Depth=2
	addq	$8, %rcx
	cmpq	%rcx, %rbx
	jne	.LBB8_63
# %bb.65:                               #   in Loop: Header=BB8_28 Depth=1
	movq	%rax, %rbx
	testq	%r14, %r14
	je	.LBB8_69
.LBB8_68:                               #   in Loop: Header=BB8_28 Depth=1
	movq	%r14, %rdi
	vzeroupper
	callq	_ZdlPv
.LBB8_69:                               #   in Loop: Header=BB8_28 Depth=1
	movq	128(%rsp), %rax                 # 8-byte Reload
	leaq	(%r15,%rax,8), %rsi
	movq	%r15, %r14
	movl	12(%rsp), %r15d                 # 4-byte Reload
	addl	%r13d, %r12d
	cmpl	%r12d, %r15d
	ja	.LBB8_28
	jmp	.LBB8_22
.LBB8_54:                               #   in Loop: Header=BB8_28 Depth=1
	xorl	%ecx, %ecx
	testb	$1, %dl
	jne	.LBB8_58
	jmp	.LBB8_59
.LBB8_22:
	cmpq	%rbx, %r14
	je	.LBB8_10
# %bb.23:
	movq	%r14, %rbp
	.p2align	4, 0x90
.LBB8_24:                               # =>This Inner Loop Header: Depth=1
.Ltmp112:
	movq	%rbp, %rdi
	vzeroupper
	callq	_ZNSt6thread4joinEv
.Ltmp113:
# %bb.25:                               #   in Loop: Header=BB8_24 Depth=1
	addq	$8, %rbp
	cmpq	%rbp, %rbx
	jne	.LBB8_24
# %bb.26:
	xorl	%r15d, %r15d
	jmp	.LBB8_11
.LBB8_9:
	xorl	%r14d, %r14d
	xorl	%ebx, %ebx
.LBB8_10:
	movb	$1, %r15b
.LBB8_11:
.Ltmp115:
	leaq	96(%rsp), %rdi
	vzeroupper
	callq	_ZN11Chronometer4stopEv
.Ltmp116:
# %bb.12:
	cmpq	$0, 72(%rsp)                    # 8-byte Folded Reload
	je	.LBB8_15
# %bb.13:
.Ltmp117:
	leaq	96(%rsp), %rdi
	callq	_ZN11Chronometer7getTimeEv
.Ltmp118:
# %bb.14:
	movq	72(%rsp), %rax                  # 8-byte Reload
	vmovss	%xmm0, (%rax)
.LBB8_15:
	movq	64(%rsp), %rbp
	testb	%r15b, %r15b
	jne	.LBB8_78
# %bb.16:
	movq	%r14, %rax
	.p2align	4, 0x90
.LBB8_77:                               # =>This Inner Loop Header: Depth=1
	cmpq	$0, (%rax)
	jne	.LBB8_87
# %bb.76:                               #   in Loop: Header=BB8_77 Depth=1
	addq	$8, %rax
	cmpq	%rax, %rbx
	jne	.LBB8_77
.LBB8_78:
	testq	%r14, %r14
	je	.LBB8_80
# %bb.79:
	movq	%r14, %rdi
	callq	_ZdlPv
.LBB8_80:
	movq	%rbp, %rax
	addq	$136, %rsp
	.cfi_def_cfa_offset 56
	popq	%rbx
	.cfi_def_cfa_offset 48
	popq	%r12
	.cfi_def_cfa_offset 40
	popq	%r13
	.cfi_def_cfa_offset 32
	popq	%r14
	.cfi_def_cfa_offset 24
	popq	%r15
	.cfi_def_cfa_offset 16
	popq	%rbp
	.cfi_def_cfa_offset 8
	retq
.LBB8_92:
	.cfi_def_cfa_offset 192
	movl	$.L.str.4, %edi
	movl	$.L.str.1, %esi
	movl	$.L__PRETTY_FUNCTION__._ZNK6TensorIfE18convolveParallelEoERKS0_jjjPf, %ecx
	movl	$574, %edx                      # imm = 0x23E
	callq	__assert_fail
.LBB8_18:
.Ltmp89:
	jmp	.LBB8_19
.LBB8_17:
.Ltmp86:
.LBB8_19:
	movq	%rax, %rbp
	movq	%rbx, %rax
	addq	$40, %rax
	movq	(%rax), %rdi
	testq	%rdi, %rdi
	je	.LBB8_21
# %bb.20:
	callq	_ZdlPv
.LBB8_21:
	movq	%rbx, %rdi
	jmp	.LBB8_90
.LBB8_81:
.Ltmp119:
	jmp	.LBB8_82
.LBB8_71:
.Ltmp102:
	movq	%rax, %rbp
	jmp	.LBB8_72
.LBB8_49:
.Ltmp105:
	movq	%rax, %rbp
	movq	(%rsp), %rdi
	testq	%rdi, %rdi
	je	.LBB8_72
# %bb.50:
	movq	(%rdi), %rax
	callq	*8(%rax)
.LBB8_72:
	movq	%rbp, %rdi
	callq	__cxa_begin_catch
	movq	%r15, %rdi
	callq	_ZdlPv
.Ltmp106:
	callq	__cxa_rethrow
.Ltmp107:
# %bb.73:
.LBB8_70:
.Ltmp108:
	movq	%rax, %rbp
.Ltmp109:
	callq	__cxa_end_catch
.Ltmp110:
	jmp	.LBB8_83
.LBB8_93:
.Ltmp111:
	movq	%rax, %rdi
	callq	__clang_call_terminate
.LBB8_75:
.Ltmp114:
	jmp	.LBB8_82
.LBB8_35:
.Ltmp96:
	movq	%rax, %rbp
	movq	(%rsp), %rdi
	testq	%rdi, %rdi
	je	.LBB8_83
# %bb.36:
	movq	(%rdi), %rax
	callq	*8(%rax)
	jmp	.LBB8_83
.LBB8_74:
.Ltmp99:
.LBB8_82:
	movq	%rax, %rbp
.LBB8_83:
	cmpq	%rbx, %r14
	je	.LBB8_88
# %bb.84:
	movq	%r14, %rax
	.p2align	4, 0x90
.LBB8_86:                               # =>This Inner Loop Header: Depth=1
	cmpq	$0, (%rax)
	jne	.LBB8_87
# %bb.85:                               #   in Loop: Header=BB8_86 Depth=1
	addq	$8, %rax
	cmpq	%rax, %rbx
	jne	.LBB8_86
.LBB8_88:
	testq	%r14, %r14
	je	.LBB8_91
# %bb.89:
	movq	%r14, %rdi
.LBB8_90:
	callq	_ZdlPv
.LBB8_91:
	movq	%rbp, %rdi
	callq	_Unwind_Resume@PLT
.LBB8_87:
	vzeroupper
	callq	_ZSt9terminatev
.Lfunc_end8:
	.size	_ZNK6TensorIfE18convolveParallelEoERKS0_jjjPf, .Lfunc_end8-_ZNK6TensorIfE18convolveParallelEoERKS0_jjjPf
	.cfi_endproc
	.section	.gcc_except_table._ZNK6TensorIfE18convolveParallelEoERKS0_jjjPf,"aG",@progbits,_ZNK6TensorIfE18convolveParallelEoERKS0_jjjPf,comdat
	.p2align	2
GCC_except_table8:
.Lexception3:
	.byte	255                             # @LPStart Encoding = omit
	.byte	3                               # @TType Encoding = udata4
	.uleb128 .Lttbase3-.Lttbaseref3
.Lttbaseref3:
	.byte	1                               # Call site Encoding = uleb128
	.uleb128 .Lcst_end3-.Lcst_begin3
.Lcst_begin3:
	.uleb128 .Lfunc_begin3-.Lfunc_begin3    # >> Call Site 1 <<
	.uleb128 .Ltmp84-.Lfunc_begin3          #   Call between .Lfunc_begin3 and .Ltmp84
	.byte	0                               #     has no landing pad
	.byte	0                               #   On action: cleanup
	.uleb128 .Ltmp84-.Lfunc_begin3          # >> Call Site 2 <<
	.uleb128 .Ltmp85-.Ltmp84                #   Call between .Ltmp84 and .Ltmp85
	.uleb128 .Ltmp86-.Lfunc_begin3          #     jumps to .Ltmp86
	.byte	0                               #   On action: cleanup
	.uleb128 .Ltmp87-.Lfunc_begin3          # >> Call Site 3 <<
	.uleb128 .Ltmp88-.Ltmp87                #   Call between .Ltmp87 and .Ltmp88
	.uleb128 .Ltmp89-.Lfunc_begin3          #     jumps to .Ltmp89
	.byte	0                               #   On action: cleanup
	.uleb128 .Ltmp90-.Lfunc_begin3          # >> Call Site 4 <<
	.uleb128 .Ltmp91-.Ltmp90                #   Call between .Ltmp90 and .Ltmp91
	.uleb128 .Ltmp119-.Lfunc_begin3         #     jumps to .Ltmp119
	.byte	0                               #   On action: cleanup
	.uleb128 .Ltmp92-.Lfunc_begin3          # >> Call Site 5 <<
	.uleb128 .Ltmp93-.Ltmp92                #   Call between .Ltmp92 and .Ltmp93
	.uleb128 .Ltmp99-.Lfunc_begin3          #     jumps to .Ltmp99
	.byte	0                               #   On action: cleanup
	.uleb128 .Ltmp94-.Lfunc_begin3          # >> Call Site 6 <<
	.uleb128 .Ltmp95-.Ltmp94                #   Call between .Ltmp94 and .Ltmp95
	.uleb128 .Ltmp96-.Lfunc_begin3          #     jumps to .Ltmp96
	.byte	0                               #   On action: cleanup
	.uleb128 .Ltmp95-.Lfunc_begin3          # >> Call Site 7 <<
	.uleb128 .Ltmp97-.Ltmp95                #   Call between .Ltmp95 and .Ltmp97
	.byte	0                               #     has no landing pad
	.byte	0                               #   On action: cleanup
	.uleb128 .Ltmp97-.Lfunc_begin3          # >> Call Site 8 <<
	.uleb128 .Ltmp98-.Ltmp97                #   Call between .Ltmp97 and .Ltmp98
	.uleb128 .Ltmp99-.Lfunc_begin3          #     jumps to .Ltmp99
	.byte	0                               #   On action: cleanup
	.uleb128 .Ltmp100-.Lfunc_begin3         # >> Call Site 9 <<
	.uleb128 .Ltmp101-.Ltmp100              #   Call between .Ltmp100 and .Ltmp101
	.uleb128 .Ltmp102-.Lfunc_begin3         #     jumps to .Ltmp102
	.byte	1                               #   On action: 1
	.uleb128 .Ltmp103-.Lfunc_begin3         # >> Call Site 10 <<
	.uleb128 .Ltmp104-.Ltmp103              #   Call between .Ltmp103 and .Ltmp104
	.uleb128 .Ltmp105-.Lfunc_begin3         #     jumps to .Ltmp105
	.byte	1                               #   On action: 1
	.uleb128 .Ltmp104-.Lfunc_begin3         # >> Call Site 11 <<
	.uleb128 .Ltmp112-.Ltmp104              #   Call between .Ltmp104 and .Ltmp112
	.byte	0                               #     has no landing pad
	.byte	0                               #   On action: cleanup
	.uleb128 .Ltmp112-.Lfunc_begin3         # >> Call Site 12 <<
	.uleb128 .Ltmp113-.Ltmp112              #   Call between .Ltmp112 and .Ltmp113
	.uleb128 .Ltmp114-.Lfunc_begin3         #     jumps to .Ltmp114
	.byte	0                               #   On action: cleanup
	.uleb128 .Ltmp115-.Lfunc_begin3         # >> Call Site 13 <<
	.uleb128 .Ltmp118-.Ltmp115              #   Call between .Ltmp115 and .Ltmp118
	.uleb128 .Ltmp119-.Lfunc_begin3         #     jumps to .Ltmp119
	.byte	0                               #   On action: cleanup
	.uleb128 .Ltmp118-.Lfunc_begin3         # >> Call Site 14 <<
	.uleb128 .Ltmp106-.Ltmp118              #   Call between .Ltmp118 and .Ltmp106
	.byte	0                               #     has no landing pad
	.byte	0                               #   On action: cleanup
	.uleb128 .Ltmp106-.Lfunc_begin3         # >> Call Site 15 <<
	.uleb128 .Ltmp107-.Ltmp106              #   Call between .Ltmp106 and .Ltmp107
	.uleb128 .Ltmp108-.Lfunc_begin3         #     jumps to .Ltmp108
	.byte	0                               #   On action: cleanup
	.uleb128 .Ltmp109-.Lfunc_begin3         # >> Call Site 16 <<
	.uleb128 .Ltmp110-.Ltmp109              #   Call between .Ltmp109 and .Ltmp110
	.uleb128 .Ltmp111-.Lfunc_begin3         #     jumps to .Ltmp111
	.byte	1                               #   On action: 1
	.uleb128 .Ltmp110-.Lfunc_begin3         # >> Call Site 17 <<
	.uleb128 .Lfunc_end8-.Ltmp110           #   Call between .Ltmp110 and .Lfunc_end8
	.byte	0                               #     has no landing pad
	.byte	0                               #   On action: cleanup
.Lcst_end3:
	.byte	1                               # >> Action Record 1 <<
                                        #   Catch TypeInfo 1
	.byte	0                               #   No further actions
	.p2align	2
                                        # >> Catch TypeInfos <<
	.long	0                               # TypeInfo 1
.Lttbase3:
	.p2align	2
                                        # -- End function
	.section	.text._ZNK6TensorIfE13convolveNaiveEPK6KernelIfEjjjPf,"axG",@progbits,_ZNK6TensorIfE13convolveNaiveEPK6KernelIfEjjjPf,comdat
	.weak	_ZNK6TensorIfE13convolveNaiveEPK6KernelIfEjjjPf # -- Begin function _ZNK6TensorIfE13convolveNaiveEPK6KernelIfEjjjPf
	.p2align	4, 0x90
	.type	_ZNK6TensorIfE13convolveNaiveEPK6KernelIfEjjjPf,@function
_ZNK6TensorIfE13convolveNaiveEPK6KernelIfEjjjPf: # 
.Lfunc_begin4:
	.cfi_startproc
	.cfi_personality 3, __gxx_personality_v0
	.cfi_lsda 3, .Lexception4
# %bb.0:
	pushq	%rbp
	.cfi_def_cfa_offset 16
	pushq	%r15
	.cfi_def_cfa_offset 24
	pushq	%r14
	.cfi_def_cfa_offset 32
	pushq	%r13
	.cfi_def_cfa_offset 40
	pushq	%r12
	.cfi_def_cfa_offset 48
	pushq	%rbx
	.cfi_def_cfa_offset 56
	subq	$392, %rsp                      # imm = 0x188
	.cfi_def_cfa_offset 448
	.cfi_offset %rbx, -56
	.cfi_offset %r12, -48
	.cfi_offset %r13, -40
	.cfi_offset %r14, -32
	.cfi_offset %r15, -24
	.cfi_offset %rbp, -16
	movq	%r9, 384(%rsp)                  # 8-byte Spill
	movslq	28(%rdi), %rax
	movq	%rax, 120(%rsp)                 # 8-byte Spill
	cmpl	28(%rsi), %eax
	jne	.LBB9_200
# %bb.1:
	movl	%r8d, %r14d
	movl	%edx, %ebp
	movq	%rdi, %r15
	movl	16(%rsi), %r12d
	movl	24(%rsi), %edi
	movq	%rsi, 216(%rsp)                 # 8-byte Spill
	movslq	20(%rsi), %rdx
	addl	%ecx, %ecx
	movl	20(%r15), %eax
	addl	%ecx, %eax
	movq	%rdx, 112(%rsp)                 # 8-byte Spill
	subl	%edx, %eax
	movl	%eax, 64(%rsp)                  # 4-byte Spill
	xorl	%edx, %edx
	divl	%ebp
	movl	%eax, %esi
	addl	24(%r15), %ecx
	movl	%edi, 4(%rsp)                   # 4-byte Spill
	subl	%edi, %ecx
	movl	%ecx, %eax
	xorl	%edx, %edx
	movq	%rbp, 72(%rsp)                  # 8-byte Spill
	divl	%ebp
                                        # kill: def $eax killed $eax def $rax
	movq	%rsi, 264(%rsp)                 # 8-byte Spill
	leal	1(%rsi), %r13d
	movq	%rax, 232(%rsp)                 # 8-byte Spill
	leal	1(%rax), %ebx
	movl	$72, %edi
	callq	_Znwm
	movq	%rax, %rbp
	movq	$_ZTV6TensorIfE+16, (%rax)
	movl	$1, 16(%rax)
	movl	%r13d, 20(%rax)
	movl	%ebx, 24(%rax)
	movl	%r12d, 28(%rax)
	vxorps	%xmm0, %xmm0, %xmm0
	vmovups	%xmm0, 40(%rax)
	movl	$1, 352(%rsp)
	movq	$0, 56(%rax)
	movb	$1, 64(%rax)
	movl	%r13d, %eax
	imull	%r12d, %eax
	imull	%ebx, %eax
	movl	%eax, 32(%rbp)
.Ltmp120:
	movl	$16, %edi
	movq	%rbp, 168(%rsp)                 # 8-byte Spill
	callq	_Znwm
.Ltmp121:
# %bb.2:
	movl	$1, (%rax)
	movl	%r13d, 52(%rsp)                 # 4-byte Spill
	movl	%r13d, 4(%rax)
	movl	%ebx, 88(%rsp)                  # 4-byte Spill
	movl	%ebx, 8(%rax)
	movl	%r12d, 100(%rsp)                # 4-byte Spill
	movl	%r12d, 12(%rax)
	movq	40(%rbp), %rdi
	testq	%rdi, %rdi
	je	.LBB9_4
# %bb.3:
	movq	%rax, %rbx
	callq	_ZdlPv
	movq	%rbx, %rax
.LBB9_4:
	movq	%rax, 40(%rbp)
	addq	$16, %rax
	movq	%rax, 48(%rbp)
	movq	%rax, 56(%rbp)
.Ltmp123:
	leaq	352(%rsp), %rsi
	movq	%rbp, %rdi
	callq	_ZN6TensorIfE9init_dataERKN6tensor4initE
.Ltmp124:
# %bb.5:
	vxorps	%xmm0, %xmm0, %xmm0
	vmovaps	%xmm0, 352(%rsp)
	movb	$1, 368(%rsp)
	leaq	352(%rsp), %rdi
	callq	_ZN11Chronometer5startEv
	decl	%r14d
	cmpl	$6, %r14d
	ja	.LBB9_73
# %bb.6:
	movq	%r15, 208(%rsp)                 # 8-byte Spill
	movl	100(%rsp), %edi                 # 4-byte Reload
	movslq	%edi, %rax
	movq	%rax, 24(%rsp)                  # 8-byte Spill
	jmpq	*.LJTI9_0(,%r14,8)
.LBB9_7:
	cmpl	$0, 120(%rsp)                   # 4-byte Folded Reload
	movq	72(%rsp), %rdx                  # 8-byte Reload
	movl	88(%rsp), %ecx                  # 4-byte Reload
	je	.LBB9_197
# %bb.8:
	movq	112(%rsp), %rax                 # 8-byte Reload
	andq	$-2, %rax
	xorl	%esi, %esi
	movq	%rsi, 32(%rsp)                  # 8-byte Spill
	jmp	.LBB9_10
	.p2align	4, 0x90
.LBB9_9:                                #   in Loop: Header=BB9_10 Depth=1
	movq	32(%rsp), %rsi                  # 8-byte Reload
	incl	%esi
	movq	%rsi, 32(%rsp)                  # 8-byte Spill
	cmpl	120(%rsp), %esi                 # 4-byte Folded Reload
	je	.LBB9_197
.LBB9_10:                               # =>This Loop Header: Depth=1
                                        #     Child Loop BB9_13 Depth 2
                                        #       Child Loop BB9_16 Depth 3
                                        #         Child Loop BB9_19 Depth 4
                                        #           Child Loop BB9_23 Depth 5
                                        #             Child Loop BB9_26 Depth 6
	testl	%edi, %edi
	je	.LBB9_9
# %bb.11:                               #   in Loop: Header=BB9_10 Depth=1
	xorl	%esi, %esi
	movq	%rsi, 8(%rsp)                   # 8-byte Spill
	jmp	.LBB9_13
	.p2align	4, 0x90
.LBB9_12:                               #   in Loop: Header=BB9_13 Depth=2
	movq	8(%rsp), %rcx                   # 8-byte Reload
	incl	%ecx
	movl	100(%rsp), %edi                 # 4-byte Reload
	movq	%rcx, 8(%rsp)                   # 8-byte Spill
	cmpl	%edi, %ecx
	movl	88(%rsp), %ecx                  # 4-byte Reload
	je	.LBB9_9
.LBB9_13:                               #   Parent Loop BB9_10 Depth=1
                                        # =>  This Loop Header: Depth=2
                                        #       Child Loop BB9_16 Depth 3
                                        #         Child Loop BB9_19 Depth 4
                                        #           Child Loop BB9_23 Depth 5
                                        #             Child Loop BB9_26 Depth 6
	testl	%ecx, %ecx
	je	.LBB9_12
# %bb.14:                               #   in Loop: Header=BB9_13 Depth=2
	movl	$0, 104(%rsp)                   # 4-byte Folded Spill
	xorl	%ecx, %ecx
	movq	%rcx, 136(%rsp)                 # 8-byte Spill
	jmp	.LBB9_16
	.p2align	4, 0x90
.LBB9_15:                               #   in Loop: Header=BB9_16 Depth=3
	movq	136(%rsp), %rsi                 # 8-byte Reload
	leal	1(%rsi), %ecx
	addl	%edx, 104(%rsp)                 # 4-byte Folded Spill
	cmpl	232(%rsp), %esi                 # 4-byte Folded Reload
                                        # kill: def $ecx killed $ecx def $rcx
	movq	%rcx, 136(%rsp)                 # 8-byte Spill
	je	.LBB9_12
.LBB9_16:                               #   Parent Loop BB9_10 Depth=1
                                        #     Parent Loop BB9_13 Depth=2
                                        # =>    This Loop Header: Depth=3
                                        #         Child Loop BB9_19 Depth 4
                                        #           Child Loop BB9_23 Depth 5
                                        #             Child Loop BB9_26 Depth 6
	cmpl	$0, 52(%rsp)                    # 4-byte Folded Reload
	je	.LBB9_15
# %bb.17:                               #   in Loop: Header=BB9_16 Depth=3
	movq	136(%rsp), %rcx                 # 8-byte Reload
                                        # kill: def $ecx killed $ecx killed $rcx def $rcx
	imull	%edx, %ecx
	movq	%rcx, 184(%rsp)                 # 8-byte Spill
	movl	$1, 144(%rsp)                   # 4-byte Folded Spill
	movl	$0, 160(%rsp)                   # 4-byte Folded Spill
	xorl	%ecx, %ecx
	movq	%rcx, 176(%rsp)                 # 8-byte Spill
	jmp	.LBB9_19
	.p2align	4, 0x90
.LBB9_18:                               #   in Loop: Header=BB9_19 Depth=4
	movq	176(%rsp), %rsi                 # 8-byte Reload
	leal	1(%rsi), %ecx
	movq	72(%rsp), %rdx                  # 8-byte Reload
	addl	%edx, 144(%rsp)                 # 4-byte Folded Spill
	addl	%edx, 160(%rsp)                 # 4-byte Folded Spill
	cmpl	264(%rsp), %esi                 # 4-byte Folded Reload
                                        # kill: def $ecx killed $ecx def $rcx
	movq	%rcx, 176(%rsp)                 # 8-byte Spill
	je	.LBB9_15
.LBB9_19:                               #   Parent Loop BB9_10 Depth=1
                                        #     Parent Loop BB9_13 Depth=2
                                        #       Parent Loop BB9_16 Depth=3
                                        # =>      This Loop Header: Depth=4
                                        #           Child Loop BB9_23 Depth 5
                                        #             Child Loop BB9_26 Depth 6
	cmpl	$0, 4(%rsp)                     # 4-byte Folded Reload
	je	.LBB9_18
# %bb.20:                               #   in Loop: Header=BB9_19 Depth=4
	cmpl	$0, 112(%rsp)                   # 4-byte Folded Reload
	je	.LBB9_18
# %bb.21:                               #   in Loop: Header=BB9_19 Depth=4
	movq	176(%rsp), %rdi                 # 8-byte Reload
	movl	%edi, %ecx
	imull	72(%rsp), %ecx                  # 4-byte Folded Reload
	movq	%rcx, 80(%rsp)                  # 8-byte Spill
	movq	208(%rsp), %rcx                 # 8-byte Reload
	movl	24(%rcx), %r11d
	movl	28(%rcx), %r15d
	movq	216(%rsp), %r12                 # 8-byte Reload
	movl	24(%r12), %r14d
	movl	16(%r12), %ebp
	movl	28(%r12), %esi
	movq	8(%rcx), %r8
	movq	168(%rsp), %r13                 # 8-byte Reload
	movl	24(%r13), %ecx
	imull	%edi, %ecx
	addl	136(%rsp), %ecx                 # 4-byte Folded Reload
	imull	28(%r13), %ecx
	movq	8(%rsp), %rdx                   # 8-byte Reload
	addl	%edx, %ecx
	movslq	%ecx, %r9
	movl	%r11d, %ebx
	imull	144(%rsp), %ebx                 # 4-byte Folded Reload
	addl	104(%rsp), %ebx                 # 4-byte Folded Reload
	imull	%r15d, %ebx
	movq	32(%rsp), %rcx                  # 8-byte Reload
	addl	%ecx, %ebx
	movl	%r11d, %r10d
	imull	%r15d, %r10d
	addl	%r10d, %r10d
	movl	%r14d, 152(%rsp)                # 4-byte Spill
                                        # kill: def $r14d killed $r14d def $r14
	imull	%ebp, %r14d
	leal	(%rdx,%r14), %edi
	imull	%esi, %edi
	addl	%ecx, %edi
	movl	%ebp, 200(%rsp)                 # 4-byte Spill
	imull	%esi, %ebp
	movl	%ebp, 40(%rsp)                  # 4-byte Spill
	imull	%esi, %r14d
	addl	%r14d, %r14d
                                        # kill: def $edx killed $edx killed $rdx
	movl	%esi, 192(%rsp)                 # 4-byte Spill
	imull	%esi, %edx
	addl	%ecx, %edx
	movl	%r11d, 128(%rsp)                # 4-byte Spill
	imull	160(%rsp), %r11d                # 4-byte Folded Reload
	addl	104(%rsp), %r11d                # 4-byte Folded Reload
	movl	%ebx, %ebp
	movl	%edx, %ebx
	movl	%r15d, 16(%rsp)                 # 4-byte Spill
	imull	%r15d, %r11d
	addl	%ecx, %r11d
	movq	8(%r12), %r12
	movq	8(%r13), %rsi
	xorl	%r13d, %r13d
	jmp	.LBB9_23
	.p2align	4, 0x90
.LBB9_22:                               #   in Loop: Header=BB9_23 Depth=5
	incl	%r13d
	movl	16(%rsp), %ecx                  # 4-byte Reload
	movl	24(%rsp), %ebp                  # 4-byte Reload
	addl	%ecx, %ebp
	movl	64(%rsp), %edi                  # 4-byte Reload
	movl	40(%rsp), %edx                  # 4-byte Reload
	addl	%edx, %edi
	movl	56(%rsp), %ebx                  # 4-byte Reload
	addl	%edx, %ebx
	addl	%ecx, %r11d
	cmpl	4(%rsp), %r13d                  # 4-byte Folded Reload
	je	.LBB9_18
.LBB9_23:                               #   Parent Loop BB9_10 Depth=1
                                        #     Parent Loop BB9_13 Depth=2
                                        #       Parent Loop BB9_16 Depth=3
                                        #         Parent Loop BB9_19 Depth=4
                                        # =>        This Loop Header: Depth=5
                                        #             Child Loop BB9_26 Depth 6
	vmovss	(%rsi,%r9,4), %xmm0             # xmm0 = mem[0],zero,zero,zero
	cmpl	$1, 112(%rsp)                   # 4-byte Folded Reload
	movl	%ebp, 24(%rsp)                  # 4-byte Spill
	movl	%edi, 64(%rsp)                  # 4-byte Spill
	movl	%ebx, 56(%rsp)                  # 4-byte Spill
	jne	.LBB9_25
# %bb.24:                               #   in Loop: Header=BB9_23 Depth=5
	xorl	%ecx, %ecx
	jmp	.LBB9_27
	.p2align	4, 0x90
.LBB9_25:                               #   in Loop: Header=BB9_23 Depth=5
	movl	%r11d, %edx
                                        # kill: def $ebx killed $ebx def $rbx
                                        # kill: def $edi killed $edi def $rdi
	movl	%ebp, %r15d
	xorl	%ecx, %ecx
	.p2align	4, 0x90
.LBB9_26:                               #   Parent Loop BB9_10 Depth=1
                                        #     Parent Loop BB9_13 Depth=2
                                        #       Parent Loop BB9_16 Depth=3
                                        #         Parent Loop BB9_19 Depth=4
                                        #           Parent Loop BB9_23 Depth=5
                                        # =>          This Inner Loop Header: Depth=6
	movslq	%edx, %rdx
	movslq	%ebx, %rbx
	vmovss	(%r12,%rbx,4), %xmm1            # xmm1 = mem[0],zero,zero,zero
	vfmadd132ss	(%r8,%rdx,4), %xmm0, %xmm1 # xmm1 = (xmm1 * mem) + xmm0
	vmovss	%xmm1, (%rsi,%r9,4)
	movslq	%r15d, %r15
	movslq	%edi, %rdi
	vmovss	(%r12,%rdi,4), %xmm0            # xmm0 = mem[0],zero,zero,zero
	vfmadd132ss	(%r8,%r15,4), %xmm1, %xmm0 # xmm0 = (xmm0 * mem) + xmm1
	vmovss	%xmm0, (%rsi,%r9,4)
	addq	$2, %rcx
	addl	%r10d, %r15d
	addl	%r14d, %edi
	addl	%r14d, %ebx
	addl	%r10d, %edx
	cmpq	%rcx, %rax
	jne	.LBB9_26
.LBB9_27:                               #   in Loop: Header=BB9_23 Depth=5
	testb	$1, 112(%rsp)                   # 1-byte Folded Reload
	je	.LBB9_22
# %bb.28:                               #   in Loop: Header=BB9_23 Depth=5
	movq	184(%rsp), %rdx                 # 8-byte Reload
	addl	%r13d, %edx
	movq	80(%rsp), %rdi                  # 8-byte Reload
	addl	%ecx, %edi
	imull	128(%rsp), %edi                 # 4-byte Folded Reload
	addl	%edx, %edi
	imull	152(%rsp), %ecx                 # 4-byte Folded Reload
	addl	%r13d, %ecx
	imull	200(%rsp), %ecx                 # 4-byte Folded Reload
	addl	8(%rsp), %ecx                   # 4-byte Folded Reload
	imull	192(%rsp), %ecx                 # 4-byte Folded Reload
	movq	32(%rsp), %rdx                  # 8-byte Reload
	addl	%edx, %ecx
	movslq	%ecx, %rcx
	vmovss	(%r12,%rcx,4), %xmm1            # xmm1 = mem[0],zero,zero,zero
	imull	16(%rsp), %edi                  # 4-byte Folded Reload
	addl	%edx, %edi
	movslq	%edi, %rcx
	vfmadd231ss	(%r8,%rcx,4), %xmm1, %xmm0 # xmm0 = (xmm1 * mem) + xmm0
	vmovss	%xmm0, (%rsi,%r9,4)
	jmp	.LBB9_22
.LBB9_29:
	cmpl	$0, 88(%rsp)                    # 4-byte Folded Reload
	movq	72(%rsp), %rax                  # 8-byte Reload
	je	.LBB9_197
# %bb.30:
	movslq	52(%rsp), %rdx                  # 4-byte Folded Reload
	movq	%rdx, %rcx
	movq	%rdx, 56(%rsp)                  # 8-byte Spill
	andq	$-2, %rdx
	movq	%rdx, 176(%rsp)                 # 8-byte Spill
	addl	%eax, %eax
	movl	%eax, 224(%rsp)                 # 4-byte Spill
	xorl	%eax, %eax
	movq	%rax, 88(%rsp)                  # 8-byte Spill
	xorl	%eax, %eax
	movq	%rax, 8(%rsp)                   # 8-byte Spill
	jmp	.LBB9_32
	.p2align	4, 0x90
.LBB9_31:                               #   in Loop: Header=BB9_32 Depth=1
	movq	8(%rsp), %rdx                   # 8-byte Reload
	leal	1(%rdx), %eax
	movq	88(%rsp), %rcx                  # 8-byte Reload
	addl	72(%rsp), %ecx                  # 4-byte Folded Reload
	movq	%rcx, 88(%rsp)                  # 8-byte Spill
	cmpl	232(%rsp), %edx                 # 4-byte Folded Reload
                                        # kill: def $eax killed $eax def $rax
	movq	%rax, 8(%rsp)                   # 8-byte Spill
	je	.LBB9_197
.LBB9_32:                               # =>This Loop Header: Depth=1
                                        #     Child Loop BB9_35 Depth 2
                                        #       Child Loop BB9_38 Depth 3
                                        #         Child Loop BB9_41 Depth 4
                                        #           Child Loop BB9_45 Depth 5
                                        #             Child Loop BB9_48 Depth 6
	testl	%edi, %edi
	je	.LBB9_31
# %bb.33:                               #   in Loop: Header=BB9_32 Depth=1
	movq	8(%rsp), %rax                   # 8-byte Reload
                                        # kill: def $eax killed $eax killed $rax def $rax
	imull	72(%rsp), %eax                  # 4-byte Folded Reload
	movq	%rax, 136(%rsp)                 # 8-byte Spill
	movl	$0, 40(%rsp)                    # 4-byte Folded Spill
	jmp	.LBB9_35
	.p2align	4, 0x90
.LBB9_34:                               #   in Loop: Header=BB9_35 Depth=2
	movl	40(%rsp), %eax                  # 4-byte Reload
	incl	%eax
	movl	100(%rsp), %edi                 # 4-byte Reload
	movl	%eax, 40(%rsp)                  # 4-byte Spill
	cmpl	%edi, %eax
	je	.LBB9_31
.LBB9_35:                               #   Parent Loop BB9_32 Depth=1
                                        # =>  This Loop Header: Depth=2
                                        #       Child Loop BB9_38 Depth 3
                                        #         Child Loop BB9_41 Depth 4
                                        #           Child Loop BB9_45 Depth 5
                                        #             Child Loop BB9_48 Depth 6
	cmpl	$0, 112(%rsp)                   # 4-byte Folded Reload
	je	.LBB9_34
# %bb.36:                               #   in Loop: Header=BB9_35 Depth=2
	movl	$0, 16(%rsp)                    # 4-byte Folded Spill
	movq	72(%rsp), %rax                  # 8-byte Reload
                                        # kill: def $eax killed $eax killed $rax
	movl	%eax, 104(%rsp)                 # 4-byte Spill
	jmp	.LBB9_38
	.p2align	4, 0x90
.LBB9_37:                               #   in Loop: Header=BB9_38 Depth=3
	movl	16(%rsp), %eax                  # 4-byte Reload
	incl	%eax
	incl	104(%rsp)                       # 4-byte Folded Spill
	movl	%eax, 16(%rsp)                  # 4-byte Spill
	cmpl	112(%rsp), %eax                 # 4-byte Folded Reload
	je	.LBB9_34
.LBB9_38:                               #   Parent Loop BB9_32 Depth=1
                                        #     Parent Loop BB9_35 Depth=2
                                        # =>    This Loop Header: Depth=3
                                        #         Child Loop BB9_41 Depth 4
                                        #           Child Loop BB9_45 Depth 5
                                        #             Child Loop BB9_48 Depth 6
	cmpl	$0, 4(%rsp)                     # 4-byte Folded Reload
	je	.LBB9_37
# %bb.39:                               #   in Loop: Header=BB9_38 Depth=3
	xorl	%eax, %eax
	movq	%rax, 144(%rsp)                 # 8-byte Spill
	movq	88(%rsp), %rax                  # 8-byte Reload
                                        # kill: def $eax killed $eax killed $rax
	movl	%eax, 160(%rsp)                 # 4-byte Spill
	jmp	.LBB9_41
	.p2align	4, 0x90
.LBB9_40:                               #   in Loop: Header=BB9_41 Depth=4
	movq	144(%rsp), %rax                 # 8-byte Reload
	incl	%eax
	incl	160(%rsp)                       # 4-byte Folded Spill
	movq	%rax, 144(%rsp)                 # 8-byte Spill
	cmpl	4(%rsp), %eax                   # 4-byte Folded Reload
	je	.LBB9_37
.LBB9_41:                               #   Parent Loop BB9_32 Depth=1
                                        #     Parent Loop BB9_35 Depth=2
                                        #       Parent Loop BB9_38 Depth=3
                                        # =>      This Loop Header: Depth=4
                                        #           Child Loop BB9_45 Depth 5
                                        #             Child Loop BB9_48 Depth 6
	cmpl	$0, 120(%rsp)                   # 4-byte Folded Reload
	je	.LBB9_40
# %bb.42:                               #   in Loop: Header=BB9_41 Depth=4
	cmpl	$0, 52(%rsp)                    # 4-byte Folded Reload
	je	.LBB9_40
# %bb.43:                               #   in Loop: Header=BB9_41 Depth=4
	movq	136(%rsp), %rax                 # 8-byte Reload
	movq	144(%rsp), %rdx                 # 8-byte Reload
	addl	%edx, %eax
	movl	%eax, 32(%rsp)                  # 4-byte Spill
	movq	208(%rsp), %rcx                 # 8-byte Reload
	movl	24(%rcx), %edi
	movl	28(%rcx), %r9d
	movq	168(%rsp), %rax                 # 8-byte Reload
	movl	24(%rax), %r8d
	movl	28(%rax), %ebx
	movq	8(%rcx), %r10
	movq	216(%rsp), %rcx                 # 8-byte Reload
	movq	8(%rcx), %r11
	movq	8(%rax), %r15
	movl	24(%rcx), %eax
	movl	16(%rsp), %ebp                  # 4-byte Reload
	imull	%ebp, %eax
	addl	%edx, %eax
	imull	16(%rcx), %eax
	movl	40(%rsp), %edx                  # 4-byte Reload
	addl	%edx, %eax
	imull	28(%rcx), %eax
	movq	%rax, 24(%rsp)                  # 8-byte Spill
	movl	104(%rsp), %r13d                # 4-byte Reload
	imull	%edi, %r13d
	movl	160(%rsp), %r12d                # 4-byte Reload
	addl	%r12d, %r13d
	imull	%r9d, %r13d
	movl	224(%rsp), %esi                 # 4-byte Reload
	imull	%edi, %esi
	imull	%r9d, %esi
	movq	8(%rsp), %rax                   # 8-byte Reload
	leal	(%rax,%r8), %ecx
	imull	%ebx, %ecx
	addl	%edx, %ecx
	movl	%ecx, 192(%rsp)                 # 4-byte Spill
	movq	%r8, 152(%rsp)                  # 8-byte Spill
	movl	%r8d, %r14d
	imull	%ebx, %r14d
	addl	%r14d, %r14d
                                        # kill: def $eax killed $eax killed $rax
	movl	%ebx, 200(%rsp)                 # 4-byte Spill
	imull	%ebx, %eax
	addl	%edx, %eax
	movl	%eax, 184(%rsp)                 # 4-byte Spill
	movl	%edi, 80(%rsp)                  # 4-byte Spill
	imull	%edi, %ebp
	addl	%r12d, %ebp
	movl	%r9d, 128(%rsp)                 # 4-byte Spill
	imull	%r9d, %ebp
	xorl	%r8d, %r8d
	jmp	.LBB9_45
	.p2align	4, 0x90
.LBB9_44:                               #   in Loop: Header=BB9_45 Depth=5
	incl	%r8d
	incl	%r13d
	incl	%ebp
	cmpl	120(%rsp), %r8d                 # 4-byte Folded Reload
	je	.LBB9_40
.LBB9_45:                               #   Parent Loop BB9_32 Depth=1
                                        #     Parent Loop BB9_35 Depth=2
                                        #       Parent Loop BB9_38 Depth=3
                                        #         Parent Loop BB9_41 Depth=4
                                        # =>        This Loop Header: Depth=5
                                        #             Child Loop BB9_48 Depth 6
	movq	24(%rsp), %rax                  # 8-byte Reload
	addl	%r8d, %eax
	movslq	%eax, %rdi
	movl	64(%rsp), %eax                  # 4-byte Reload
	cmpl	72(%rsp), %eax                  # 4-byte Folded Reload
	jae	.LBB9_47
# %bb.46:                               #   in Loop: Header=BB9_45 Depth=5
	xorl	%ebx, %ebx
	jmp	.LBB9_49
	.p2align	4, 0x90
.LBB9_47:                               #   in Loop: Header=BB9_45 Depth=5
	movl	%ebp, %r9d
	movl	184(%rsp), %eax                 # 4-byte Reload
                                        # kill: def $eax killed $eax def $rax
	movl	192(%rsp), %ecx                 # 4-byte Reload
	movl	%ecx, %edx
	movl	%r13d, %ecx
	xorl	%ebx, %ebx
	movq	176(%rsp), %r12                 # 8-byte Reload
	.p2align	4, 0x90
.LBB9_48:                               #   Parent Loop BB9_32 Depth=1
                                        #     Parent Loop BB9_35 Depth=2
                                        #       Parent Loop BB9_38 Depth=3
                                        #         Parent Loop BB9_41 Depth=4
                                        #           Parent Loop BB9_45 Depth=5
                                        # =>          This Inner Loop Header: Depth=6
	movslq	%r9d, %r9
	vmovss	(%r10,%r9,4), %xmm0             # xmm0 = mem[0],zero,zero,zero
	vmovss	(%r11,%rdi,4), %xmm1            # xmm1 = mem[0],zero,zero,zero
	cltq
	vfmadd213ss	(%r15,%rax,4), %xmm0, %xmm1 # xmm1 = (xmm0 * xmm1) + mem
	vmovss	%xmm1, (%r15,%rax,4)
	movslq	%ecx, %rcx
	vmovss	(%r10,%rcx,4), %xmm0            # xmm0 = mem[0],zero,zero,zero
	vmovss	(%r11,%rdi,4), %xmm1            # xmm1 = mem[0],zero,zero,zero
	movslq	%edx, %rdx
	vfmadd213ss	(%r15,%rdx,4), %xmm0, %xmm1 # xmm1 = (xmm0 * xmm1) + mem
	vmovss	%xmm1, (%r15,%rdx,4)
	addq	$2, %rbx
	addl	%esi, %ecx
	addl	%r14d, %edx
	addl	%r14d, %eax
	addl	%esi, %r9d
	addq	$-2, %r12
	jne	.LBB9_48
.LBB9_49:                               #   in Loop: Header=BB9_45 Depth=5
	testb	$1, 56(%rsp)                    # 1-byte Folded Reload
	je	.LBB9_44
# %bb.50:                               #   in Loop: Header=BB9_45 Depth=5
	movq	152(%rsp), %rax                 # 8-byte Reload
                                        # kill: def $eax killed $eax killed $rax
	imull	%ebx, %eax
	imull	72(%rsp), %ebx                  # 4-byte Folded Reload
	addl	16(%rsp), %ebx                  # 4-byte Folded Reload
	imull	80(%rsp), %ebx                  # 4-byte Folded Reload
	addl	32(%rsp), %ebx                  # 4-byte Folded Reload
	imull	128(%rsp), %ebx                 # 4-byte Folded Reload
	addl	%r8d, %ebx
	movslq	%ebx, %rcx
	vmovss	(%r10,%rcx,4), %xmm0            # xmm0 = mem[0],zero,zero,zero
	vmovss	(%r11,%rdi,4), %xmm1            # xmm1 = mem[0],zero,zero,zero
	addl	8(%rsp), %eax                   # 4-byte Folded Reload
	imull	200(%rsp), %eax                 # 4-byte Folded Reload
	addl	40(%rsp), %eax                  # 4-byte Folded Reload
	cltq
	vfmadd213ss	(%r15,%rax,4), %xmm0, %xmm1 # xmm1 = (xmm0 * xmm1) + mem
	vmovss	%xmm1, (%r15,%rax,4)
	jmp	.LBB9_44
.LBB9_51:
	cmpl	$0, 52(%rsp)                    # 4-byte Folded Reload
	movq	72(%rsp), %rcx                  # 8-byte Reload
	movl	88(%rsp), %edx                  # 4-byte Reload
	je	.LBB9_197
# %bb.52:
	cmpl	$0, 112(%rsp)                   # 4-byte Folded Reload
	sete	%al
	cmpl	$0, 4(%rsp)                     # 4-byte Folded Reload
	sete	%bl
	movq	120(%rsp), %rsi                 # 8-byte Reload
	leaq	-1(%rsi), %rbp
	movq	%rbp, 64(%rsp)                  # 8-byte Spill
	orb	%al, %bl
	movb	%bl, 128(%rsp)                  # 1-byte Spill
	movl	%esi, %eax
	andl	$3, %eax
	movq	%rax, 24(%rsp)                  # 8-byte Spill
	andq	$-4, %rsi
	xorl	%ebp, %ebp
	movq	%rbp, 152(%rsp)                 # 8-byte Spill
	xorl	%ebp, %ebp
	movq	%rbp, 80(%rsp)                  # 8-byte Spill
	jmp	.LBB9_54
	.p2align	4, 0x90
.LBB9_53:                               #   in Loop: Header=BB9_54 Depth=1
	movq	80(%rsp), %rbx                  # 8-byte Reload
	leal	1(%rbx), %edx
	movq	152(%rsp), %rbp                 # 8-byte Reload
	addl	%ecx, %ebp
	movq	%rbp, 152(%rsp)                 # 8-byte Spill
	cmpl	264(%rsp), %ebx                 # 4-byte Folded Reload
                                        # kill: def $edx killed $edx def $rdx
	movq	%rdx, 80(%rsp)                  # 8-byte Spill
	movl	88(%rsp), %edx                  # 4-byte Reload
	je	.LBB9_197
.LBB9_54:                               # =>This Loop Header: Depth=1
                                        #     Child Loop BB9_57 Depth 2
                                        #       Child Loop BB9_60 Depth 3
                                        #         Child Loop BB9_63 Depth 4
                                        #           Child Loop BB9_66 Depth 5
                                        #             Child Loop BB9_69 Depth 6
                                        #             Child Loop BB9_72 Depth 6
	testl	%edx, %edx
	je	.LBB9_53
# %bb.55:                               #   in Loop: Header=BB9_54 Depth=1
	movl	$0, 32(%rsp)                    # 4-byte Folded Spill
	xorl	%ecx, %ecx
	movq	%rcx, 8(%rsp)                   # 8-byte Spill
	jmp	.LBB9_57
	.p2align	4, 0x90
.LBB9_56:                               #   in Loop: Header=BB9_57 Depth=2
	movq	8(%rsp), %rbp                   # 8-byte Reload
	leal	1(%rbp), %edx
	movq	72(%rsp), %rcx                  # 8-byte Reload
	addl	%ecx, 32(%rsp)                  # 4-byte Folded Spill
	cmpl	232(%rsp), %ebp                 # 4-byte Folded Reload
                                        # kill: def $edx killed $edx def $rdx
	movq	%rdx, 8(%rsp)                   # 8-byte Spill
	je	.LBB9_53
.LBB9_57:                               #   Parent Loop BB9_54 Depth=1
                                        # =>  This Loop Header: Depth=2
                                        #       Child Loop BB9_60 Depth 3
                                        #         Child Loop BB9_63 Depth 4
                                        #           Child Loop BB9_66 Depth 5
                                        #             Child Loop BB9_69 Depth 6
                                        #             Child Loop BB9_72 Depth 6
	testl	%edi, %edi
	je	.LBB9_56
# %bb.58:                               #   in Loop: Header=BB9_57 Depth=2
	movl	$0, 40(%rsp)                    # 4-byte Folded Spill
	jmp	.LBB9_60
	.p2align	4, 0x90
.LBB9_59:                               #   in Loop: Header=BB9_60 Depth=3
	movl	40(%rsp), %ecx                  # 4-byte Reload
	incl	%ecx
	movl	100(%rsp), %edi                 # 4-byte Reload
	movl	%ecx, 40(%rsp)                  # 4-byte Spill
	cmpl	%edi, %ecx
	je	.LBB9_56
.LBB9_60:                               #   Parent Loop BB9_54 Depth=1
                                        #     Parent Loop BB9_57 Depth=2
                                        # =>    This Loop Header: Depth=3
                                        #         Child Loop BB9_63 Depth 4
                                        #           Child Loop BB9_66 Depth 5
                                        #             Child Loop BB9_69 Depth 6
                                        #             Child Loop BB9_72 Depth 6
	cmpb	$0, 128(%rsp)                   # 1-byte Folded Reload
	jne	.LBB9_59
# %bb.61:                               #   in Loop: Header=BB9_60 Depth=3
	movl	$0, 56(%rsp)                    # 4-byte Folded Spill
	movq	152(%rsp), %rcx                 # 8-byte Reload
                                        # kill: def $ecx killed $ecx killed $rcx
	movl	%ecx, 16(%rsp)                  # 4-byte Spill
	jmp	.LBB9_63
	.p2align	4, 0x90
.LBB9_62:                               #   in Loop: Header=BB9_63 Depth=4
	movl	56(%rsp), %ecx                  # 4-byte Reload
	incl	%ecx
	incl	16(%rsp)                        # 4-byte Folded Spill
	movl	%ecx, 56(%rsp)                  # 4-byte Spill
	cmpl	112(%rsp), %ecx                 # 4-byte Folded Reload
	je	.LBB9_59
.LBB9_63:                               #   Parent Loop BB9_54 Depth=1
                                        #     Parent Loop BB9_57 Depth=2
                                        #       Parent Loop BB9_60 Depth=3
                                        # =>      This Loop Header: Depth=4
                                        #           Child Loop BB9_66 Depth 5
                                        #             Child Loop BB9_69 Depth 6
                                        #             Child Loop BB9_72 Depth 6
	cmpl	$0, 120(%rsp)                   # 4-byte Folded Reload
	je	.LBB9_62
# %bb.64:                               #   in Loop: Header=BB9_63 Depth=4
	movq	208(%rsp), %r10                 # 8-byte Reload
	movl	28(%r10), %r15d
	movq	216(%rsp), %r11                 # 8-byte Reload
	movl	16(%r11), %eax
	movl	28(%r11), %r14d
	movq	8(%r10), %rbx
	movq	8(%r11), %rbp
	movq	168(%rsp), %rdx                 # 8-byte Reload
	movq	8(%rdx), %r8
	movl	24(%rdx), %ecx
	imull	80(%rsp), %ecx                  # 4-byte Folded Reload
	addl	8(%rsp), %ecx                   # 4-byte Folded Reload
	imull	28(%rdx), %ecx
	movl	40(%rsp), %edx                  # 4-byte Reload
	addl	%edx, %ecx
	movslq	%ecx, %r9
	movl	24(%r10), %r10d
	imull	16(%rsp), %r10d                 # 4-byte Folded Reload
	addl	32(%rsp), %r10d                 # 4-byte Folded Reload
	movq	%r15, %rdi
	imull	%r15d, %r10d
	movl	24(%r11), %r11d
	imull	%eax, %r11d
	imull	56(%rsp), %r11d                 # 4-byte Folded Reload
	addl	%edx, %r11d
	imull	%r14d, %r11d
	imull	%r14d, %eax
	xorl	%r14d, %r14d
	jmp	.LBB9_66
	.p2align	4, 0x90
.LBB9_65:                               #   in Loop: Header=BB9_66 Depth=5
	incl	%r14d
	addq	%rdi, %r10
	addq	%rax, %r11
	cmpl	4(%rsp), %r14d                  # 4-byte Folded Reload
	je	.LBB9_62
.LBB9_66:                               #   Parent Loop BB9_54 Depth=1
                                        #     Parent Loop BB9_57 Depth=2
                                        #       Parent Loop BB9_60 Depth=3
                                        #         Parent Loop BB9_63 Depth=4
                                        # =>        This Loop Header: Depth=5
                                        #             Child Loop BB9_69 Depth 6
                                        #             Child Loop BB9_72 Depth 6
	vmovss	(%r8,%r9,4), %xmm0              # xmm0 = mem[0],zero,zero,zero
	cmpq	$3, 64(%rsp)                    # 8-byte Folded Reload
	jae	.LBB9_68
# %bb.67:                               #   in Loop: Header=BB9_66 Depth=5
	xorl	%r15d, %r15d
	jmp	.LBB9_70
	.p2align	4, 0x90
.LBB9_68:                               #   in Loop: Header=BB9_66 Depth=5
	xorl	%r15d, %r15d
	.p2align	4, 0x90
.LBB9_69:                               #   Parent Loop BB9_54 Depth=1
                                        #     Parent Loop BB9_57 Depth=2
                                        #       Parent Loop BB9_60 Depth=3
                                        #         Parent Loop BB9_63 Depth=4
                                        #           Parent Loop BB9_66 Depth=5
                                        # =>          This Inner Loop Header: Depth=6
	leaq	(%r10,%r15), %rcx
	leaq	(%r11,%r15), %rdx
	movslq	%ecx, %r12
	movslq	%edx, %r13
	vmovss	(%rbp,%r13,4), %xmm1            # xmm1 = mem[0],zero,zero,zero
	vfmadd132ss	(%rbx,%r12,4), %xmm0, %xmm1 # xmm1 = (xmm1 * mem) + xmm0
	vmovss	%xmm1, (%r8,%r9,4)
	leal	1(%r12), %ecx
	leal	1(%r13), %edx
	movslq	%ecx, %rcx
	movslq	%edx, %rdx
	vmovss	(%rbp,%rdx,4), %xmm0            # xmm0 = mem[0],zero,zero,zero
	vfmadd132ss	(%rbx,%rcx,4), %xmm1, %xmm0 # xmm0 = (xmm0 * mem) + xmm1
	vmovss	%xmm0, (%r8,%r9,4)
	leal	2(%r12), %ecx
	leal	2(%r13), %edx
	movslq	%ecx, %rcx
	movslq	%edx, %rdx
	vmovss	(%rbp,%rdx,4), %xmm1            # xmm1 = mem[0],zero,zero,zero
	vfmadd132ss	(%rbx,%rcx,4), %xmm0, %xmm1 # xmm1 = (xmm1 * mem) + xmm0
	vmovss	%xmm1, (%r8,%r9,4)
	addl	$3, %r12d
	addl	$3, %r13d
	movslq	%r12d, %rcx
	movslq	%r13d, %rdx
	vmovss	(%rbp,%rdx,4), %xmm0            # xmm0 = mem[0],zero,zero,zero
	vfmadd132ss	(%rbx,%rcx,4), %xmm1, %xmm0 # xmm0 = (xmm0 * mem) + xmm1
	vmovss	%xmm0, (%r8,%r9,4)
	addq	$4, %r15
	cmpq	%r15, %rsi
	jne	.LBB9_69
.LBB9_70:                               #   in Loop: Header=BB9_66 Depth=5
	cmpq	$0, 24(%rsp)                    # 8-byte Folded Reload
	je	.LBB9_65
# %bb.71:                               #   in Loop: Header=BB9_66 Depth=5
	leal	(%r11,%r15), %ecx
	addl	%r10d, %r15d
	movq	24(%rsp), %rdx                  # 8-byte Reload
	.p2align	4, 0x90
.LBB9_72:                               #   Parent Loop BB9_54 Depth=1
                                        #     Parent Loop BB9_57 Depth=2
                                        #       Parent Loop BB9_60 Depth=3
                                        #         Parent Loop BB9_63 Depth=4
                                        #           Parent Loop BB9_66 Depth=5
                                        # =>          This Inner Loop Header: Depth=6
	movslq	%r15d, %r15
	movslq	%ecx, %rcx
	vmovss	(%rbp,%rcx,4), %xmm1            # xmm1 = mem[0],zero,zero,zero
	vfmadd231ss	(%rbx,%r15,4), %xmm1, %xmm0 # xmm0 = (xmm1 * mem) + xmm0
	vmovss	%xmm0, (%r8,%r9,4)
	incl	%ecx
	incl	%r15d
	decq	%rdx
	jne	.LBB9_72
	jmp	.LBB9_65
.LBB9_73:
	movl	$_ZSt4cerr, %edi
	movl	$.L.str.6, %esi
	movl	$50, %edx
	callq	_ZSt16__ostream_insertIcSt11char_traitsIcEERSt13basic_ostreamIT_T0_ES6_PKS3_l
	jmp	.LBB9_197
.LBB9_74:
	cmpl	$0, 88(%rsp)                    # 4-byte Folded Reload
	movq	72(%rsp), %rcx                  # 8-byte Reload
	je	.LBB9_197
# %bb.75:
	movq	120(%rsp), %rdx                 # 8-byte Reload
	leaq	-1(%rdx), %rax
	movq	%rax, 64(%rsp)                  # 8-byte Spill
	movl	%edx, %eax
	andl	$3, %eax
	movq	%rax, 24(%rsp)                  # 8-byte Spill
	andq	$-4, %rdx
	xorl	%eax, %eax
	movq	%rax, 32(%rsp)                  # 8-byte Spill
	xorl	%eax, %eax
	movq	%rax, 80(%rsp)                  # 8-byte Spill
	jmp	.LBB9_77
	.p2align	4, 0x90
.LBB9_76:                               #   in Loop: Header=BB9_77 Depth=1
	movq	80(%rsp), %rbp                  # 8-byte Reload
	leal	1(%rbp), %eax
	movq	32(%rsp), %rsi                  # 8-byte Reload
	addl	%ecx, %esi
	movq	%rsi, 32(%rsp)                  # 8-byte Spill
	cmpl	232(%rsp), %ebp                 # 4-byte Folded Reload
                                        # kill: def $eax killed $eax def $rax
	movq	%rax, 80(%rsp)                  # 8-byte Spill
	je	.LBB9_197
.LBB9_77:                               # =>This Loop Header: Depth=1
                                        #     Child Loop BB9_80 Depth 2
                                        #       Child Loop BB9_83 Depth 3
                                        #         Child Loop BB9_87 Depth 4
                                        #           Child Loop BB9_90 Depth 5
                                        #             Child Loop BB9_93 Depth 6
                                        #             Child Loop BB9_96 Depth 6
	testl	%edi, %edi
	je	.LBB9_76
# %bb.78:                               #   in Loop: Header=BB9_77 Depth=1
	movl	$0, 8(%rsp)                     # 4-byte Folded Spill
	jmp	.LBB9_80
	.p2align	4, 0x90
.LBB9_79:                               #   in Loop: Header=BB9_80 Depth=2
	movl	8(%rsp), %eax                   # 4-byte Reload
	incl	%eax
	movl	100(%rsp), %edi                 # 4-byte Reload
	movl	%eax, 8(%rsp)                   # 4-byte Spill
	cmpl	%edi, %eax
	je	.LBB9_76
.LBB9_80:                               #   Parent Loop BB9_77 Depth=1
                                        # =>  This Loop Header: Depth=2
                                        #       Child Loop BB9_83 Depth 3
                                        #         Child Loop BB9_87 Depth 4
                                        #           Child Loop BB9_90 Depth 5
                                        #             Child Loop BB9_93 Depth 6
                                        #             Child Loop BB9_96 Depth 6
	cmpl	$0, 52(%rsp)                    # 4-byte Folded Reload
	je	.LBB9_79
# %bb.81:                               #   in Loop: Header=BB9_80 Depth=2
	movl	$0, 128(%rsp)                   # 4-byte Folded Spill
	xorl	%eax, %eax
	movq	%rax, 40(%rsp)                  # 8-byte Spill
	jmp	.LBB9_83
	.p2align	4, 0x90
.LBB9_82:                               #   in Loop: Header=BB9_83 Depth=3
	movq	40(%rsp), %rsi                  # 8-byte Reload
	leal	1(%rsi), %eax
	movq	72(%rsp), %rcx                  # 8-byte Reload
	addl	%ecx, 128(%rsp)                 # 4-byte Folded Spill
	cmpl	264(%rsp), %esi                 # 4-byte Folded Reload
                                        # kill: def $eax killed $eax def $rax
	movq	%rax, 40(%rsp)                  # 8-byte Spill
	je	.LBB9_79
.LBB9_83:                               #   Parent Loop BB9_77 Depth=1
                                        #     Parent Loop BB9_80 Depth=2
                                        # =>    This Loop Header: Depth=3
                                        #         Child Loop BB9_87 Depth 4
                                        #           Child Loop BB9_90 Depth 5
                                        #             Child Loop BB9_93 Depth 6
                                        #             Child Loop BB9_96 Depth 6
	cmpl	$0, 112(%rsp)                   # 4-byte Folded Reload
	je	.LBB9_82
# %bb.84:                               #   in Loop: Header=BB9_83 Depth=3
	cmpl	$0, 4(%rsp)                     # 4-byte Folded Reload
	je	.LBB9_82
# %bb.85:                               #   in Loop: Header=BB9_83 Depth=3
	movl	$0, 56(%rsp)                    # 4-byte Folded Spill
	movl	128(%rsp), %eax                 # 4-byte Reload
	movl	%eax, 16(%rsp)                  # 4-byte Spill
	jmp	.LBB9_87
	.p2align	4, 0x90
.LBB9_86:                               #   in Loop: Header=BB9_87 Depth=4
	movl	56(%rsp), %eax                  # 4-byte Reload
	incl	%eax
	incl	16(%rsp)                        # 4-byte Folded Spill
	movl	%eax, 56(%rsp)                  # 4-byte Spill
	cmpl	112(%rsp), %eax                 # 4-byte Folded Reload
	je	.LBB9_82
.LBB9_87:                               #   Parent Loop BB9_77 Depth=1
                                        #     Parent Loop BB9_80 Depth=2
                                        #       Parent Loop BB9_83 Depth=3
                                        # =>      This Loop Header: Depth=4
                                        #           Child Loop BB9_90 Depth 5
                                        #             Child Loop BB9_93 Depth 6
                                        #             Child Loop BB9_96 Depth 6
	cmpl	$0, 120(%rsp)                   # 4-byte Folded Reload
	je	.LBB9_86
# %bb.88:                               #   in Loop: Header=BB9_87 Depth=4
	movq	208(%rsp), %r9                  # 8-byte Reload
	movl	28(%r9), %r14d
	movq	216(%rsp), %r10                 # 8-byte Reload
	movl	16(%r10), %ebp
	movl	28(%r10), %r11d
	movq	8(%r9), %rdi
	movq	8(%r10), %rsi
	movq	168(%rsp), %rbx                 # 8-byte Reload
	movq	8(%rbx), %rax
	movl	24(%rbx), %ecx
	imull	40(%rsp), %ecx                  # 4-byte Folded Reload
	addl	80(%rsp), %ecx                  # 4-byte Folded Reload
	imull	28(%rbx), %ecx
	movl	8(%rsp), %ebx                   # 4-byte Reload
	addl	%ebx, %ecx
	movslq	%ecx, %r8
	movl	24(%r9), %r9d
	imull	16(%rsp), %r9d                  # 4-byte Folded Reload
	addl	32(%rsp), %r9d                  # 4-byte Folded Reload
	movq	%r14, %r13
	imull	%r14d, %r9d
	movl	24(%r10), %r10d
	imull	%ebp, %r10d
	imull	56(%rsp), %r10d                 # 4-byte Folded Reload
	addl	%ebx, %r10d
	imull	%r11d, %r10d
	imull	%r11d, %ebp
	xorl	%r11d, %r11d
	jmp	.LBB9_90
	.p2align	4, 0x90
.LBB9_89:                               #   in Loop: Header=BB9_90 Depth=5
	incl	%r11d
	addq	%r13, %r9
	addq	%rbp, %r10
	cmpl	4(%rsp), %r11d                  # 4-byte Folded Reload
	je	.LBB9_86
.LBB9_90:                               #   Parent Loop BB9_77 Depth=1
                                        #     Parent Loop BB9_80 Depth=2
                                        #       Parent Loop BB9_83 Depth=3
                                        #         Parent Loop BB9_87 Depth=4
                                        # =>        This Loop Header: Depth=5
                                        #             Child Loop BB9_93 Depth 6
                                        #             Child Loop BB9_96 Depth 6
	vmovss	(%rax,%r8,4), %xmm0             # xmm0 = mem[0],zero,zero,zero
	cmpq	$3, 64(%rsp)                    # 8-byte Folded Reload
	jae	.LBB9_92
# %bb.91:                               #   in Loop: Header=BB9_90 Depth=5
	xorl	%r14d, %r14d
	jmp	.LBB9_94
	.p2align	4, 0x90
.LBB9_92:                               #   in Loop: Header=BB9_90 Depth=5
	xorl	%r14d, %r14d
	.p2align	4, 0x90
.LBB9_93:                               #   Parent Loop BB9_77 Depth=1
                                        #     Parent Loop BB9_80 Depth=2
                                        #       Parent Loop BB9_83 Depth=3
                                        #         Parent Loop BB9_87 Depth=4
                                        #           Parent Loop BB9_90 Depth=5
                                        # =>          This Inner Loop Header: Depth=6
	leaq	(%r9,%r14), %rcx
	leaq	(%r10,%r14), %rbx
	movslq	%ecx, %r15
	movslq	%ebx, %r12
	vmovss	(%rsi,%r12,4), %xmm1            # xmm1 = mem[0],zero,zero,zero
	vfmadd132ss	(%rdi,%r15,4), %xmm0, %xmm1 # xmm1 = (xmm1 * mem) + xmm0
	vmovss	%xmm1, (%rax,%r8,4)
	leal	1(%r15), %ecx
	leal	1(%r12), %ebx
	movslq	%ecx, %rcx
	movslq	%ebx, %rbx
	vmovss	(%rsi,%rbx,4), %xmm0            # xmm0 = mem[0],zero,zero,zero
	vfmadd132ss	(%rdi,%rcx,4), %xmm1, %xmm0 # xmm0 = (xmm0 * mem) + xmm1
	vmovss	%xmm0, (%rax,%r8,4)
	leal	2(%r15), %ecx
	leal	2(%r12), %ebx
	movslq	%ecx, %rcx
	movslq	%ebx, %rbx
	vmovss	(%rsi,%rbx,4), %xmm1            # xmm1 = mem[0],zero,zero,zero
	vfmadd132ss	(%rdi,%rcx,4), %xmm0, %xmm1 # xmm1 = (xmm1 * mem) + xmm0
	vmovss	%xmm1, (%rax,%r8,4)
	addl	$3, %r15d
	addl	$3, %r12d
	movslq	%r15d, %rcx
	movslq	%r12d, %rbx
	vmovss	(%rsi,%rbx,4), %xmm0            # xmm0 = mem[0],zero,zero,zero
	vfmadd132ss	(%rdi,%rcx,4), %xmm1, %xmm0 # xmm0 = (xmm0 * mem) + xmm1
	vmovss	%xmm0, (%rax,%r8,4)
	addq	$4, %r14
	cmpq	%r14, %rdx
	jne	.LBB9_93
.LBB9_94:                               #   in Loop: Header=BB9_90 Depth=5
	cmpq	$0, 24(%rsp)                    # 8-byte Folded Reload
	je	.LBB9_89
# %bb.95:                               #   in Loop: Header=BB9_90 Depth=5
	leal	(%r10,%r14), %ebx
	addl	%r9d, %r14d
	movq	24(%rsp), %rcx                  # 8-byte Reload
	.p2align	4, 0x90
.LBB9_96:                               #   Parent Loop BB9_77 Depth=1
                                        #     Parent Loop BB9_80 Depth=2
                                        #       Parent Loop BB9_83 Depth=3
                                        #         Parent Loop BB9_87 Depth=4
                                        #           Parent Loop BB9_90 Depth=5
                                        # =>          This Inner Loop Header: Depth=6
	movslq	%r14d, %r14
	movslq	%ebx, %rbx
	vmovss	(%rsi,%rbx,4), %xmm1            # xmm1 = mem[0],zero,zero,zero
	vfmadd231ss	(%rdi,%r14,4), %xmm1, %xmm0 # xmm0 = (xmm1 * mem) + xmm0
	vmovss	%xmm0, (%rax,%r8,4)
	incl	%ebx
	incl	%r14d
	decq	%rcx
	jne	.LBB9_96
	jmp	.LBB9_89
.LBB9_97:
	cmpl	$0, 52(%rsp)                    # 4-byte Folded Reload
	movl	88(%rsp), %eax                  # 4-byte Reload
	je	.LBB9_197
# %bb.98:
	testl	%eax, %eax
	sete	%al
	testl	%edi, %edi
	sete	%dl
	movq	24(%rsp), %rcx                  # 8-byte Reload
	leaq	-1(%rcx), %rsi
	movq	%rsi, 144(%rsp)                 # 8-byte Spill
	leaq	-16(%rcx), %rsi
	shrq	$4, %rsi
	movq	%rsi, 336(%rsp)                 # 8-byte Spill
	incq	%rsi
	orb	%al, %dl
	movb	%dl, 244(%rsp)                  # 1-byte Spill
	movq	%rcx, %rax
	andq	$-16, %rax
	movq	%rax, 320(%rsp)                 # 8-byte Spill
	negq	%rcx
	movq	%rcx, 200(%rsp)                 # 8-byte Spill
	movq	%rsi, %rax
	movq	%rsi, 328(%rsp)                 # 8-byte Spill
	andq	$-2, %rsi
	negq	%rsi
	movq	%rsi, 296(%rsp)                 # 8-byte Spill
	xorl	%eax, %eax
	movq	%rax, 248(%rsp)                 # 8-byte Spill
	jmp	.LBB9_100
	.p2align	4, 0x90
.LBB9_99:                               #   in Loop: Header=BB9_100 Depth=1
	movq	248(%rsp), %rcx                 # 8-byte Reload
	leal	1(%rcx), %eax
	cmpl	264(%rsp), %ecx                 # 4-byte Folded Reload
                                        # kill: def $eax killed $eax def $rax
	movq	%rax, 248(%rsp)                 # 8-byte Spill
	je	.LBB9_197
.LBB9_100:                              # =>This Loop Header: Depth=1
                                        #     Child Loop BB9_103 Depth 2
                                        #       Child Loop BB9_106 Depth 3
                                        #         Child Loop BB9_109 Depth 4
                                        #           Child Loop BB9_112 Depth 5
                                        #             Child Loop BB9_127 Depth 6
                                        #             Child Loop BB9_118 Depth 6
	cmpl	$0, 112(%rsp)                   # 4-byte Folded Reload
	je	.LBB9_99
# %bb.101:                              #   in Loop: Header=BB9_100 Depth=1
	movq	248(%rsp), %rax                 # 8-byte Reload
                                        # kill: def $eax killed $eax killed $rax def $rax
	imull	72(%rsp), %eax                  # 4-byte Folded Reload
	movq	%rax, 288(%rsp)                 # 8-byte Spill
	xorl	%eax, %eax
	movq	%rax, 256(%rsp)                 # 8-byte Spill
	jmp	.LBB9_103
	.p2align	4, 0x90
.LBB9_102:                              #   in Loop: Header=BB9_103 Depth=2
	movq	256(%rsp), %rcx                 # 8-byte Reload
	incl	%ecx
	movq	%rcx, %rax
	movq	%rcx, 256(%rsp)                 # 8-byte Spill
	cmpl	112(%rsp), %ecx                 # 4-byte Folded Reload
	je	.LBB9_99
.LBB9_103:                              #   Parent Loop BB9_100 Depth=1
                                        # =>  This Loop Header: Depth=2
                                        #       Child Loop BB9_106 Depth 3
                                        #         Child Loop BB9_109 Depth 4
                                        #           Child Loop BB9_112 Depth 5
                                        #             Child Loop BB9_127 Depth 6
                                        #             Child Loop BB9_118 Depth 6
	cmpl	$0, 4(%rsp)                     # 4-byte Folded Reload
	je	.LBB9_102
# %bb.104:                              #   in Loop: Header=BB9_103 Depth=2
	movq	288(%rsp), %rax                 # 8-byte Reload
	movq	256(%rsp), %rcx                 # 8-byte Reload
	addl	%ecx, %eax
	movl	%eax, 52(%rsp)                  # 4-byte Spill
	xorl	%eax, %eax
	movq	%rax, 16(%rsp)                  # 8-byte Spill
	jmp	.LBB9_106
	.p2align	4, 0x90
.LBB9_105:                              #   in Loop: Header=BB9_106 Depth=3
	movq	16(%rsp), %rax                  # 8-byte Reload
	incl	%eax
	movq	%rax, 16(%rsp)                  # 8-byte Spill
	cmpl	4(%rsp), %eax                   # 4-byte Folded Reload
	je	.LBB9_102
.LBB9_106:                              #   Parent Loop BB9_100 Depth=1
                                        #     Parent Loop BB9_103 Depth=2
                                        # =>    This Loop Header: Depth=3
                                        #         Child Loop BB9_109 Depth 4
                                        #           Child Loop BB9_112 Depth 5
                                        #             Child Loop BB9_127 Depth 6
                                        #             Child Loop BB9_118 Depth 6
	cmpl	$0, 120(%rsp)                   # 4-byte Folded Reload
	je	.LBB9_105
# %bb.107:                              #   in Loop: Header=BB9_106 Depth=3
	xorl	%eax, %eax
	movq	%rax, 64(%rsp)                  # 8-byte Spill
	jmp	.LBB9_109
	.p2align	4, 0x90
.LBB9_108:                              #   in Loop: Header=BB9_109 Depth=4
	movq	64(%rsp), %rax                  # 8-byte Reload
	incl	%eax
	movq	%rax, 64(%rsp)                  # 8-byte Spill
	cmpl	120(%rsp), %eax                 # 4-byte Folded Reload
	je	.LBB9_105
.LBB9_109:                              #   Parent Loop BB9_100 Depth=1
                                        #     Parent Loop BB9_103 Depth=2
                                        #       Parent Loop BB9_106 Depth=3
                                        # =>      This Loop Header: Depth=4
                                        #           Child Loop BB9_112 Depth 5
                                        #             Child Loop BB9_127 Depth 6
                                        #             Child Loop BB9_118 Depth 6
	cmpb	$0, 244(%rsp)                   # 1-byte Folded Reload
	jne	.LBB9_108
# %bb.110:                              #   in Loop: Header=BB9_109 Depth=4
	movq	208(%rsp), %r15                 # 8-byte Reload
	movl	28(%r15), %r8d
	movl	%r8d, 128(%rsp)                 # 4-byte Spill
	movq	168(%rsp), %r14                 # 8-byte Reload
	movl	28(%r14), %esi
	movq	216(%rsp), %rax                 # 8-byte Reload
	movl	16(%rax), %edi
	movl	28(%rax), %r10d
	movq	8(%rax), %r9
	movl	24(%r15), %edx
	imull	52(%rsp), %edx                  # 4-byte Folded Reload
	movl	24(%r14), %r11d
	imull	248(%rsp), %r11d                # 4-byte Folded Reload
	movl	24(%rax), %eax
	imull	256(%rsp), %eax                 # 4-byte Folded Reload
	movq	16(%rsp), %rcx                  # 8-byte Reload
	addl	%ecx, %eax
	movl	%eax, %ebp
	imull	%edi, %ebp
	movq	64(%rsp), %rbx                  # 8-byte Reload
	leal	(%rbx,%rbp), %r13d
	movq	%rdx, 32(%rsp)                  # 8-byte Spill
	addl	%edx, %ecx
	imull	%r8d, %ecx
	addl	%ebx, %ecx
	movl	%ecx, 160(%rsp)                 # 4-byte Spill
	movl	%r8d, %ecx
	imull	72(%rsp), %ecx                  # 4-byte Folded Reload
	movl	%ecx, 104(%rsp)                 # 4-byte Spill
	movslq	%r13d, %rcx
	leaq	(%r9,%rcx,4), %rdx
	movq	%rdx, 136(%rsp)                 # 8-byte Spill
	movq	24(%rsp), %r12                  # 8-byte Reload
	leaq	(%r9,%r12,4), %rdx
	leaq	(%rdx,%rcx,4), %rcx
	movq	%rcx, 224(%rsp)                 # 8-byte Spill
	movq	%r11, 80(%rsp)                  # 8-byte Spill
                                        # kill: def $r11d killed $r11d killed $r11 def $r11
	imull	%esi, %r11d
	imull	%r10d, %edi
	imull	%eax, %edi
	leal	16(%rbp), %eax
	imull	%r10d, %eax
	addl	%ebx, %eax
	movl	%eax, 312(%rsp)                 # 4-byte Spill
	movl	%r10d, %eax
	shll	$5, %eax
	movl	%eax, 304(%rsp)                 # 4-byte Spill
	addl	%ebx, %edi
	movl	%edi, 272(%rsp)                 # 4-byte Spill
	movq	8(%r15), %rax
	movq	8(%r14), %rdx
	movq	%rax, 152(%rsp)                 # 8-byte Spill
	incq	%rax
	movq	%rax, 88(%rsp)                  # 8-byte Spill
	leaq	(%rdx,%r12,4), %rax
	movq	%rax, 344(%rsp)                 # 8-byte Spill
	movq	144(%rsp), %rax                 # 8-byte Reload
	movq	%r13, 192(%rsp)                 # 8-byte Spill
	addl	%r13d, %eax
	movl	%eax, 184(%rsp)                 # 4-byte Spill
	leal	1(%r11), %r8d
	movq	%rbp, 40(%rsp)                  # 8-byte Spill
	leal	1(%rbp), %eax
	movq	%rax, 176(%rsp)                 # 8-byte Spill
	movq	%r10, 56(%rsp)                  # 8-byte Spill
	leal	(%r10,%r10), %r14d
	xorl	%r13d, %r13d
	movl	%esi, 8(%rsp)                   # 4-byte Spill
	jmp	.LBB9_112
	.p2align	4, 0x90
.LBB9_111:                              #   in Loop: Header=BB9_112 Depth=5
	leal	1(%r13), %eax
	movl	8(%rsp), %esi                   # 4-byte Reload
	addl	%esi, %r11d
	addl	%esi, %r8d
	cmpl	232(%rsp), %r13d                # 4-byte Folded Reload
	movl	%eax, %r13d
	je	.LBB9_108
.LBB9_112:                              #   Parent Loop BB9_100 Depth=1
                                        #     Parent Loop BB9_103 Depth=2
                                        #       Parent Loop BB9_106 Depth=3
                                        #         Parent Loop BB9_109 Depth=4
                                        # =>        This Loop Header: Depth=5
                                        #             Child Loop BB9_127 Depth 6
                                        #             Child Loop BB9_118 Depth 6
	movq	80(%rsp), %rax                  # 8-byte Reload
	leal	(%rax,%r13), %r12d
	imull	%esi, %r12d
	movl	%r13d, %eax
	imull	72(%rsp), %eax                  # 4-byte Folded Reload
	addl	16(%rsp), %eax                  # 4-byte Folded Reload
	addl	32(%rsp), %eax                  # 4-byte Folded Reload
	imull	128(%rsp), %eax                 # 4-byte Folded Reload
	addl	64(%rsp), %eax                  # 4-byte Folded Reload
	cltq
	movq	152(%rsp), %rcx                 # 8-byte Reload
	leaq	(%rcx,%rax,4), %r15
	cmpl	$16, 100(%rsp)                  # 4-byte Folded Reload
	jae	.LBB9_119
.LBB9_113:                              #   in Loop: Header=BB9_112 Depth=5
	xorl	%eax, %eax
.LBB9_114:                              #   in Loop: Header=BB9_112 Depth=5
	movq	%rax, %rsi
	testb	$1, 24(%rsp)                    # 1-byte Folded Reload
	je	.LBB9_116
# %bb.115:                              #   in Loop: Header=BB9_112 Depth=5
	addl	%eax, %r12d
	movq	40(%rsp), %rcx                  # 8-byte Reload
	addl	%eax, %ecx
	imull	56(%rsp), %ecx                  # 4-byte Folded Reload
	addl	64(%rsp), %ecx                  # 4-byte Folded Reload
	vmovss	(%r15), %xmm0                   # xmm0 = mem[0],zero,zero,zero
	movslq	%ecx, %rcx
	vmovss	(%r9,%rcx,4), %xmm1             # xmm1 = mem[0],zero,zero,zero
	movslq	%r12d, %rcx
	vfmadd213ss	(%rdx,%rcx,4), %xmm0, %xmm1 # xmm1 = (xmm0 * xmm1) + mem
	vmovss	%xmm1, (%rdx,%rcx,4)
	movq	%rax, %rsi
	orq	$1, %rsi
.LBB9_116:                              #   in Loop: Header=BB9_112 Depth=5
	notq	%rax
	cmpq	200(%rsp), %rax                 # 8-byte Folded Reload
	je	.LBB9_111
# %bb.117:                              #   in Loop: Header=BB9_112 Depth=5
	leal	(%r8,%rsi), %eax
	movq	176(%rsp), %rcx                 # 8-byte Reload
	leal	(%rcx,%rsi), %ebp
	movq	56(%rsp), %r10                  # 8-byte Reload
	imull	%r10d, %ebp
	movq	64(%rsp), %rdi                  # 8-byte Reload
	addl	%edi, %ebp
	movq	24(%rsp), %rbx                  # 8-byte Reload
	subq	%rsi, %rbx
	movq	40(%rsp), %rcx                  # 8-byte Reload
	addl	%esi, %ecx
	imull	%r10d, %ecx
	addl	%edi, %ecx
	addl	%r11d, %esi
	.p2align	4, 0x90
.LBB9_118:                              #   Parent Loop BB9_100 Depth=1
                                        #     Parent Loop BB9_103 Depth=2
                                        #       Parent Loop BB9_106 Depth=3
                                        #         Parent Loop BB9_109 Depth=4
                                        #           Parent Loop BB9_112 Depth=5
                                        # =>          This Inner Loop Header: Depth=6
	vmovss	(%r15), %xmm0                   # xmm0 = mem[0],zero,zero,zero
	movslq	%ecx, %rcx
	vmovss	(%r9,%rcx,4), %xmm1             # xmm1 = mem[0],zero,zero,zero
	movslq	%esi, %rsi
	vfmadd213ss	(%rdx,%rsi,4), %xmm0, %xmm1 # xmm1 = (xmm0 * xmm1) + mem
	vmovss	%xmm1, (%rdx,%rsi,4)
	vmovss	(%r15), %xmm0                   # xmm0 = mem[0],zero,zero,zero
	movslq	%ebp, %rbp
	vmovss	(%r9,%rbp,4), %xmm1             # xmm1 = mem[0],zero,zero,zero
	cltq
	vfmadd213ss	(%rdx,%rax,4), %xmm0, %xmm1 # xmm1 = (xmm0 * xmm1) + mem
	vmovss	%xmm1, (%rdx,%rax,4)
	addl	$2, %eax
	addl	%r14d, %ebp
	addl	%r14d, %ecx
	addl	$2, %esi
	addq	$-2, %rbx
	jne	.LBB9_118
	jmp	.LBB9_111
	.p2align	4, 0x90
.LBB9_119:                              #   in Loop: Header=BB9_112 Depth=5
	movl	184(%rsp), %eax                 # 4-byte Reload
	cmpl	192(%rsp), %eax                 # 4-byte Folded Reload
	jl	.LBB9_113
# %bb.120:                              #   in Loop: Header=BB9_112 Depth=5
	cmpl	$1, 56(%rsp)                    # 4-byte Folded Reload
	jne	.LBB9_113
# %bb.121:                              #   in Loop: Header=BB9_112 Depth=5
	movq	144(%rsp), %rcx                 # 8-byte Reload
	leal	(%r12,%rcx), %eax
	cmpl	%r12d, %eax
	jl	.LBB9_113
# %bb.122:                              #   in Loop: Header=BB9_112 Depth=5
	movq	%rcx, %rax
	shrq	$32, %rax
	movl	$0, %eax
	jne	.LBB9_114
# %bb.123:                              #   in Loop: Header=BB9_112 Depth=5
	movl	104(%rsp), %eax                 # 4-byte Reload
	imull	%r13d, %eax
	addl	160(%rsp), %eax                 # 4-byte Folded Reload
	cltq
	movq	88(%rsp), %rcx                  # 8-byte Reload
	leaq	(%rcx,%rax,4), %rax
	movslq	%r12d, %rcx
	leaq	(%rdx,%rcx,4), %rsi
	movq	344(%rsp), %rdi                 # 8-byte Reload
	leaq	(%rdi,%rcx,4), %rbp
	cmpq	%rbp, %r15
	setb	%bl
	cmpq	%rsi, %rax
	seta	%al
	cmpq	224(%rsp), %rsi                 # 8-byte Folded Reload
	setb	%cl
	cmpq	%rbp, 136(%rsp)                 # 8-byte Folded Reload
	setb	%sil
	testb	%al, %bl
	jne	.LBB9_113
# %bb.124:                              #   in Loop: Header=BB9_112 Depth=5
	movl	$0, %eax
	andb	%sil, %cl
	jne	.LBB9_114
# %bb.125:                              #   in Loop: Header=BB9_112 Depth=5
	cmpq	$0, 336(%rsp)                   # 8-byte Folded Reload
	je	.LBB9_134
# %bb.126:                              #   in Loop: Header=BB9_112 Depth=5
	vbroadcastss	(%r15), %ymm0
	movq	296(%rsp), %rax                 # 8-byte Reload
	movl	272(%rsp), %ecx                 # 4-byte Reload
                                        # kill: def $ecx killed $ecx def $rcx
	movl	312(%rsp), %esi                 # 4-byte Reload
	movl	%esi, %ebx
	movl	%r11d, %r10d
	xorl	%ebp, %ebp
	movl	304(%rsp), %edi                 # 4-byte Reload
	.p2align	4, 0x90
.LBB9_127:                              #   Parent Loop BB9_100 Depth=1
                                        #     Parent Loop BB9_103 Depth=2
                                        #       Parent Loop BB9_106 Depth=3
                                        #         Parent Loop BB9_109 Depth=4
                                        #           Parent Loop BB9_112 Depth=5
                                        # =>          This Inner Loop Header: Depth=6
	movslq	%ecx, %rcx
	vmovups	(%r9,%rcx,4), %ymm1
	vmovups	32(%r9,%rcx,4), %ymm2
	movslq	%r10d, %r10
	vfmadd213ps	(%rdx,%r10,4), %ymm0, %ymm1 # ymm1 = (ymm0 * ymm1) + mem
	vfmadd213ps	32(%rdx,%r10,4), %ymm0, %ymm2 # ymm2 = (ymm0 * ymm2) + mem
	vmovups	%ymm1, (%rdx,%r10,4)
	vmovups	%ymm2, 32(%rdx,%r10,4)
	leal	16(%r10), %esi
	movslq	%ebx, %rbx
	vmovups	(%r9,%rbx,4), %ymm1
	vmovups	32(%r9,%rbx,4), %ymm2
	movslq	%esi, %rsi
	vfmadd213ps	(%rdx,%rsi,4), %ymm0, %ymm1 # ymm1 = (ymm0 * ymm1) + mem
	vfmadd213ps	32(%rdx,%rsi,4), %ymm0, %ymm2 # ymm2 = (ymm0 * ymm2) + mem
	vmovups	%ymm1, (%rdx,%rsi,4)
	vmovups	%ymm2, 32(%rdx,%rsi,4)
	addq	$32, %rbp
	addl	$32, %r10d
	addl	%edi, %ebx
	addl	%edi, %ecx
	addq	$2, %rax
	jne	.LBB9_127
# %bb.128:                              #   in Loop: Header=BB9_112 Depth=5
	testb	$1, 328(%rsp)                   # 1-byte Folded Reload
	je	.LBB9_130
.LBB9_129:                              #   in Loop: Header=BB9_112 Depth=5
	leal	(%r12,%rbp), %eax
	addl	40(%rsp), %ebp                  # 4-byte Folded Reload
	imull	56(%rsp), %ebp                  # 4-byte Folded Reload
	addl	64(%rsp), %ebp                  # 4-byte Folded Reload
	vbroadcastss	(%r15), %ymm0
	movslq	%ebp, %rcx
	vmovups	(%r9,%rcx,4), %ymm1
	vmovups	32(%r9,%rcx,4), %ymm2
	cltq
	vfmadd213ps	(%rdx,%rax,4), %ymm0, %ymm1 # ymm1 = (ymm0 * ymm1) + mem
	vfmadd213ps	32(%rdx,%rax,4), %ymm0, %ymm2 # ymm2 = (ymm0 * ymm2) + mem
	vmovups	%ymm1, (%rdx,%rax,4)
	vmovups	%ymm2, 32(%rdx,%rax,4)
.LBB9_130:                              #   in Loop: Header=BB9_112 Depth=5
	movq	320(%rsp), %rcx                 # 8-byte Reload
	movq	%rcx, %rax
	cmpq	24(%rsp), %rcx                  # 8-byte Folded Reload
	je	.LBB9_111
	jmp	.LBB9_114
.LBB9_134:                              #   in Loop: Header=BB9_112 Depth=5
	xorl	%ebp, %ebp
	testb	$1, 328(%rsp)                   # 1-byte Folded Reload
	jne	.LBB9_129
	jmp	.LBB9_130
.LBB9_136:
	cmpl	$0, 112(%rsp)                   # 4-byte Folded Reload
	movq	72(%rsp), %rbx                  # 8-byte Reload
	movl	88(%rsp), %eax                  # 4-byte Reload
	je	.LBB9_197
# %bb.137:
	movslq	52(%rsp), %rdx                  # 4-byte Folded Reload
	movq	%rdx, %rcx
	movq	%rdx, 40(%rsp)                  # 8-byte Spill
	andq	$-2, %rdx
	movq	%rdx, 144(%rsp)                 # 8-byte Spill
	leal	(%rbx,%rbx), %ecx
	movl	%ecx, 224(%rsp)                 # 4-byte Spill
	xorl	%ecx, %ecx
	movq	%rcx, 32(%rsp)                  # 8-byte Spill
	movl	%ebx, %ecx
	movl	%ebx, 136(%rsp)                 # 4-byte Spill
	jmp	.LBB9_139
	.p2align	4, 0x90
.LBB9_138:                              #   in Loop: Header=BB9_139 Depth=1
	movq	32(%rsp), %rcx                  # 8-byte Reload
	incl	%ecx
	incl	136(%rsp)                       # 4-byte Folded Spill
	movq	%rcx, 32(%rsp)                  # 8-byte Spill
	cmpl	112(%rsp), %ecx                 # 4-byte Folded Reload
	je	.LBB9_197
.LBB9_139:                              # =>This Loop Header: Depth=1
                                        #     Child Loop BB9_142 Depth 2
                                        #       Child Loop BB9_145 Depth 3
                                        #         Child Loop BB9_148 Depth 4
                                        #           Child Loop BB9_152 Depth 5
                                        #             Child Loop BB9_155 Depth 6
	cmpl	$0, 4(%rsp)                     # 4-byte Folded Reload
	je	.LBB9_138
# %bb.140:                              #   in Loop: Header=BB9_139 Depth=1
	movl	$0, 104(%rsp)                   # 4-byte Folded Spill
	jmp	.LBB9_142
	.p2align	4, 0x90
.LBB9_141:                              #   in Loop: Header=BB9_142 Depth=2
	movl	104(%rsp), %ecx                 # 4-byte Reload
	incl	%ecx
	movl	%ecx, 104(%rsp)                 # 4-byte Spill
	cmpl	4(%rsp), %ecx                   # 4-byte Folded Reload
	je	.LBB9_138
.LBB9_142:                              #   Parent Loop BB9_139 Depth=1
                                        # =>  This Loop Header: Depth=2
                                        #       Child Loop BB9_145 Depth 3
                                        #         Child Loop BB9_148 Depth 4
                                        #           Child Loop BB9_152 Depth 5
                                        #             Child Loop BB9_155 Depth 6
	cmpl	$0, 120(%rsp)                   # 4-byte Folded Reload
	je	.LBB9_141
# %bb.143:                              #   in Loop: Header=BB9_142 Depth=2
	movl	$0, 24(%rsp)                    # 4-byte Folded Spill
	jmp	.LBB9_145
	.p2align	4, 0x90
.LBB9_144:                              #   in Loop: Header=BB9_145 Depth=3
	movl	24(%rsp), %eax                  # 4-byte Reload
	incl	%eax
	movl	%eax, 24(%rsp)                  # 4-byte Spill
	cmpl	120(%rsp), %eax                 # 4-byte Folded Reload
	movl	88(%rsp), %eax                  # 4-byte Reload
	je	.LBB9_141
.LBB9_145:                              #   Parent Loop BB9_139 Depth=1
                                        #     Parent Loop BB9_142 Depth=2
                                        # =>    This Loop Header: Depth=3
                                        #         Child Loop BB9_148 Depth 4
                                        #           Child Loop BB9_152 Depth 5
                                        #             Child Loop BB9_155 Depth 6
	testl	%eax, %eax
	je	.LBB9_144
# %bb.146:                              #   in Loop: Header=BB9_145 Depth=3
	xorl	%eax, %eax
	movq	%rax, 8(%rsp)                   # 8-byte Spill
	movl	104(%rsp), %eax                 # 4-byte Reload
	movl	%eax, 160(%rsp)                 # 4-byte Spill
	jmp	.LBB9_148
	.p2align	4, 0x90
.LBB9_147:                              #   in Loop: Header=BB9_148 Depth=4
	movq	8(%rsp), %rcx                   # 8-byte Reload
	leal	1(%rcx), %eax
	addl	%ebx, 160(%rsp)                 # 4-byte Folded Spill
	cmpl	232(%rsp), %ecx                 # 4-byte Folded Reload
                                        # kill: def $eax killed $eax def $rax
	movq	%rax, 8(%rsp)                   # 8-byte Spill
	je	.LBB9_144
.LBB9_148:                              #   Parent Loop BB9_139 Depth=1
                                        #     Parent Loop BB9_142 Depth=2
                                        #       Parent Loop BB9_145 Depth=3
                                        # =>      This Loop Header: Depth=4
                                        #           Child Loop BB9_152 Depth 5
                                        #             Child Loop BB9_155 Depth 6
	testl	%edi, %edi
	je	.LBB9_147
# %bb.149:                              #   in Loop: Header=BB9_148 Depth=4
	cmpl	$0, 52(%rsp)                    # 4-byte Folded Reload
	je	.LBB9_147
# %bb.150:                              #   in Loop: Header=BB9_148 Depth=4
	movq	8(%rsp), %r10                   # 8-byte Reload
	movl	%r10d, %eax
	imull	%ebx, %eax
	movl	104(%rsp), %esi                 # 4-byte Reload
	addl	%esi, %eax
	movl	%eax, 80(%rsp)                  # 4-byte Spill
	movq	208(%rsp), %rdx                 # 8-byte Reload
	movl	24(%rdx), %eax
	movl	28(%rdx), %r8d
	movq	168(%rsp), %rcx                 # 8-byte Reload
	movl	24(%rcx), %r15d
	movl	28(%rcx), %ebp
	movq	216(%rsp), %rcx                 # 8-byte Reload
	movl	28(%rcx), %edi
	movl	%edi, 56(%rsp)                  # 4-byte Spill
	movq	8(%rdx), %r9
	movl	24(%rcx), %edi
	movq	32(%rsp), %rdx                  # 8-byte Reload
	imull	%edx, %edi
	addl	%esi, %edi
	imull	16(%rcx), %edi
	movq	%rdi, 16(%rsp)                  # 8-byte Spill
	movq	8(%rcx), %r11
	movl	136(%rsp), %edi                 # 4-byte Reload
	imull	%eax, %edi
	movl	160(%rsp), %esi                 # 4-byte Reload
	addl	%esi, %edi
	imull	%r8d, %edi
	movl	24(%rsp), %ecx                  # 4-byte Reload
	addl	%ecx, %edi
	movl	%edi, 184(%rsp)                 # 4-byte Spill
	movl	224(%rsp), %r12d                # 4-byte Reload
	imull	%eax, %r12d
	imull	%r8d, %r12d
	leal	(%r15,%r10), %r14d
	imull	%ebp, %r14d
	movq	%r15, 200(%rsp)                 # 8-byte Spill
	movl	%r15d, %r13d
	imull	%ebp, %r13d
	addl	%r13d, %r13d
	movl	%ebp, 192(%rsp)                 # 4-byte Spill
	imull	%r10d, %ebp
                                        # kill: def $edx killed $edx killed $rdx
	movl	%eax, 128(%rsp)                 # 4-byte Spill
	imull	%eax, %edx
	addl	%esi, %edx
	movl	%r8d, 152(%rsp)                 # 4-byte Spill
	imull	%r8d, %edx
	addl	%ecx, %edx
	movl	%edx, 176(%rsp)                 # 4-byte Spill
	movq	168(%rsp), %rax                 # 8-byte Reload
	movq	8(%rax), %rcx
	xorl	%edx, %edx
	jmp	.LBB9_152
	.p2align	4, 0x90
.LBB9_151:                              #   in Loop: Header=BB9_152 Depth=5
	incl	%edx
	incl	%r14d
	incl	%ebp
	movl	100(%rsp), %edi                 # 4-byte Reload
	cmpl	%edi, %edx
	je	.LBB9_147
.LBB9_152:                              #   Parent Loop BB9_139 Depth=1
                                        #     Parent Loop BB9_142 Depth=2
                                        #       Parent Loop BB9_145 Depth=3
                                        #         Parent Loop BB9_148 Depth=4
                                        # =>        This Loop Header: Depth=5
                                        #             Child Loop BB9_155 Depth 6
	movq	16(%rsp), %rax                  # 8-byte Reload
	addl	%edx, %eax
	imull	56(%rsp), %eax                  # 4-byte Folded Reload
	addl	24(%rsp), %eax                  # 4-byte Folded Reload
	cltq
	cmpl	%ebx, 64(%rsp)                  # 4-byte Folded Reload
	jae	.LBB9_154
# %bb.153:                              #   in Loop: Header=BB9_152 Depth=5
	xorl	%r15d, %r15d
	jmp	.LBB9_156
	.p2align	4, 0x90
.LBB9_154:                              #   in Loop: Header=BB9_152 Depth=5
	movl	176(%rsp), %esi                 # 4-byte Reload
	movl	%esi, %edi
	movl	%ebp, %esi
	movl	%r14d, %r8d
	movl	184(%rsp), %ebx                 # 4-byte Reload
	movl	%ebx, %r10d
	xorl	%r15d, %r15d
	movq	144(%rsp), %rbx                 # 8-byte Reload
	.p2align	4, 0x90
.LBB9_155:                              #   Parent Loop BB9_139 Depth=1
                                        #     Parent Loop BB9_142 Depth=2
                                        #       Parent Loop BB9_145 Depth=3
                                        #         Parent Loop BB9_148 Depth=4
                                        #           Parent Loop BB9_152 Depth=5
                                        # =>          This Inner Loop Header: Depth=6
	movslq	%edi, %rdi
	vmovss	(%r9,%rdi,4), %xmm0             # xmm0 = mem[0],zero,zero,zero
	vmovss	(%r11,%rax,4), %xmm1            # xmm1 = mem[0],zero,zero,zero
	movslq	%esi, %rsi
	vfmadd213ss	(%rcx,%rsi,4), %xmm0, %xmm1 # xmm1 = (xmm0 * xmm1) + mem
	vmovss	%xmm1, (%rcx,%rsi,4)
	movslq	%r10d, %r10
	vmovss	(%r9,%r10,4), %xmm0             # xmm0 = mem[0],zero,zero,zero
	vmovss	(%r11,%rax,4), %xmm1            # xmm1 = mem[0],zero,zero,zero
	movslq	%r8d, %r8
	vfmadd213ss	(%rcx,%r8,4), %xmm0, %xmm1 # xmm1 = (xmm0 * xmm1) + mem
	vmovss	%xmm1, (%rcx,%r8,4)
	addq	$2, %r15
	addl	%r12d, %r10d
	addl	%r13d, %r8d
	addl	%r13d, %esi
	addl	%r12d, %edi
	addq	$-2, %rbx
	jne	.LBB9_155
.LBB9_156:                              #   in Loop: Header=BB9_152 Depth=5
	testb	$1, 40(%rsp)                    # 1-byte Folded Reload
	movq	72(%rsp), %rbx                  # 8-byte Reload
	je	.LBB9_151
# %bb.157:                              #   in Loop: Header=BB9_152 Depth=5
	movq	200(%rsp), %rsi                 # 8-byte Reload
                                        # kill: def $esi killed $esi killed $rsi
	imull	%r15d, %esi
	imull	%ebx, %r15d
	addl	32(%rsp), %r15d                 # 4-byte Folded Reload
	imull	128(%rsp), %r15d                # 4-byte Folded Reload
	addl	80(%rsp), %r15d                 # 4-byte Folded Reload
	imull	152(%rsp), %r15d                # 4-byte Folded Reload
	addl	24(%rsp), %r15d                 # 4-byte Folded Reload
	movslq	%r15d, %rdi
	vmovss	(%r9,%rdi,4), %xmm0             # xmm0 = mem[0],zero,zero,zero
	vmovss	(%r11,%rax,4), %xmm1            # xmm1 = mem[0],zero,zero,zero
	addl	8(%rsp), %esi                   # 4-byte Folded Reload
	imull	192(%rsp), %esi                 # 4-byte Folded Reload
	addl	%edx, %esi
	movslq	%esi, %rax
	vfmadd213ss	(%rcx,%rax,4), %xmm0, %xmm1 # xmm1 = (xmm0 * xmm1) + mem
	vmovss	%xmm1, (%rcx,%rax,4)
	jmp	.LBB9_151
.LBB9_158:
	cmpl	$0, 112(%rsp)                   # 4-byte Folded Reload
	movq	72(%rsp), %r10                  # 8-byte Reload
	movl	88(%rsp), %eax                  # 4-byte Reload
	je	.LBB9_197
# %bb.159:
	testl	%eax, %eax
	sete	%al
	testl	%edi, %edi
	sete	%dl
	movq	24(%rsp), %rcx                  # 8-byte Reload
	leaq	-1(%rcx), %rsi
	movq	%rsi, 104(%rsp)                 # 8-byte Spill
	leaq	-16(%rcx), %rsi
	shrq	$4, %rsi
	movq	%rsi, 312(%rsp)                 # 8-byte Spill
	incq	%rsi
	orb	%al, %dl
	movb	%dl, 288(%rsp)                  # 1-byte Spill
	movq	%rcx, %rax
	andq	$-16, %rax
	movq	%rax, 296(%rsp)                 # 8-byte Spill
	negq	%rcx
	movq	%rcx, 192(%rsp)                 # 8-byte Spill
	movq	%rsi, %rax
	movq	%rsi, 304(%rsp)                 # 8-byte Spill
	andq	$-2, %rsi
	negq	%rsi
	movq	%rsi, 248(%rsp)                 # 8-byte Spill
	xorl	%eax, %eax
	movq	%rax, 280(%rsp)                 # 8-byte Spill
	jmp	.LBB9_161
	.p2align	4, 0x90
.LBB9_160:                              #   in Loop: Header=BB9_161 Depth=1
	movq	280(%rsp), %rax                 # 8-byte Reload
	incl	%eax
	movq	%rax, 280(%rsp)                 # 8-byte Spill
	cmpl	112(%rsp), %eax                 # 4-byte Folded Reload
	je	.LBB9_197
.LBB9_161:                              # =>This Loop Header: Depth=1
                                        #     Child Loop BB9_164 Depth 2
                                        #       Child Loop BB9_167 Depth 3
                                        #         Child Loop BB9_170 Depth 4
                                        #           Child Loop BB9_173 Depth 5
                                        #             Child Loop BB9_188 Depth 6
                                        #             Child Loop BB9_179 Depth 6
	cmpl	$0, 4(%rsp)                     # 4-byte Folded Reload
	movl	52(%rsp), %eax                  # 4-byte Reload
	je	.LBB9_160
# %bb.162:                              #   in Loop: Header=BB9_161 Depth=1
	xorl	%ecx, %ecx
	movq	%rcx, 32(%rsp)                  # 8-byte Spill
	jmp	.LBB9_164
	.p2align	4, 0x90
.LBB9_163:                              #   in Loop: Header=BB9_164 Depth=2
	movq	32(%rsp), %rcx                  # 8-byte Reload
	incl	%ecx
	movq	%rcx, 32(%rsp)                  # 8-byte Spill
	cmpl	4(%rsp), %ecx                   # 4-byte Folded Reload
	je	.LBB9_160
.LBB9_164:                              #   Parent Loop BB9_161 Depth=1
                                        # =>  This Loop Header: Depth=2
                                        #       Child Loop BB9_167 Depth 3
                                        #         Child Loop BB9_170 Depth 4
                                        #           Child Loop BB9_173 Depth 5
                                        #             Child Loop BB9_188 Depth 6
                                        #             Child Loop BB9_179 Depth 6
	cmpl	$0, 120(%rsp)                   # 4-byte Folded Reload
	je	.LBB9_163
# %bb.165:                              #   in Loop: Header=BB9_164 Depth=2
	xorl	%ecx, %ecx
	movq	%rcx, 16(%rsp)                  # 8-byte Spill
	jmp	.LBB9_167
	.p2align	4, 0x90
.LBB9_166:                              #   in Loop: Header=BB9_167 Depth=3
	movq	16(%rsp), %rax                  # 8-byte Reload
	incl	%eax
	movq	%rax, 16(%rsp)                  # 8-byte Spill
	cmpl	120(%rsp), %eax                 # 4-byte Folded Reload
	movl	52(%rsp), %eax                  # 4-byte Reload
	je	.LBB9_163
.LBB9_167:                              #   Parent Loop BB9_161 Depth=1
                                        #     Parent Loop BB9_164 Depth=2
                                        # =>    This Loop Header: Depth=3
                                        #         Child Loop BB9_170 Depth 4
                                        #           Child Loop BB9_173 Depth 5
                                        #             Child Loop BB9_188 Depth 6
                                        #             Child Loop BB9_179 Depth 6
	testl	%eax, %eax
	je	.LBB9_166
# %bb.168:                              #   in Loop: Header=BB9_167 Depth=3
	xorl	%eax, %eax
	movq	%rax, 272(%rsp)                 # 8-byte Spill
	jmp	.LBB9_170
	.p2align	4, 0x90
.LBB9_169:                              #   in Loop: Header=BB9_170 Depth=4
	movq	272(%rsp), %rcx                 # 8-byte Reload
	leal	1(%rcx), %eax
	cmpl	264(%rsp), %ecx                 # 4-byte Folded Reload
                                        # kill: def $eax killed $eax def $rax
	movq	%rax, 272(%rsp)                 # 8-byte Spill
	je	.LBB9_166
.LBB9_170:                              #   Parent Loop BB9_161 Depth=1
                                        #     Parent Loop BB9_164 Depth=2
                                        #       Parent Loop BB9_167 Depth=3
                                        # =>      This Loop Header: Depth=4
                                        #           Child Loop BB9_173 Depth 5
                                        #             Child Loop BB9_188 Depth 6
                                        #             Child Loop BB9_179 Depth 6
	cmpb	$0, 288(%rsp)                   # 1-byte Folded Reload
	jne	.LBB9_169
# %bb.171:                              #   in Loop: Header=BB9_170 Depth=4
	movq	272(%rsp), %rdi                 # 8-byte Reload
	movl	%edi, %edx
	imull	%r10d, %edx
	movq	280(%rsp), %r12                 # 8-byte Reload
	addl	%r12d, %edx
	movq	208(%rsp), %r13                 # 8-byte Reload
	movl	28(%r13), %r15d
	movq	168(%rsp), %r14                 # 8-byte Reload
	movl	24(%r14), %r11d
	movl	28(%r14), %r8d
	movl	%r8d, 8(%rsp)                   # 4-byte Spill
	movq	216(%rsp), %rax                 # 8-byte Reload
	movl	16(%rax), %esi
	movl	28(%rax), %ebx
	movq	8(%rax), %rbp
	imull	24(%r13), %edx
	movl	%r11d, %ecx
	imull	%edi, %ecx
	movq	%rcx, 200(%rsp)                 # 8-byte Spill
	movl	24(%rax), %eax
	imull	%r12d, %eax
	movq	32(%rsp), %r12                  # 8-byte Reload
	addl	%r12d, %eax
	movl	%eax, %r9d
	imull	%esi, %r9d
	imull	%r8d, %r11d
	imull	%edi, %r11d
	movq	16(%rsp), %rdi                  # 8-byte Reload
	leal	(%rdi,%r9), %r8d
	movq	%rdx, 128(%rsp)                 # 8-byte Spill
	addl	%r12d, %edx
	imull	%r15d, %edx
	addl	%edi, %edx
	movl	%edx, 224(%rsp)                 # 4-byte Spill
	movl	%r15d, 152(%rsp)                # 4-byte Spill
	movl	%r15d, %edx
	imull	%r10d, %edx
	movl	%edx, 88(%rsp)                  # 4-byte Spill
	movslq	%r8d, %rcx
	movq	24(%rsp), %r12                  # 8-byte Reload
	leaq	(,%r12,4), %rdx
	addq	%rbp, %rdx
	leaq	(%rdx,%rcx,4), %rdx
	movq	%rdx, 344(%rsp)                 # 8-byte Spill
	leaq	(,%rcx,4), %rcx
	addq	%rbp, %rcx
	movq	%rcx, 336(%rsp)                 # 8-byte Spill
	movl	8(%rsp), %ecx                   # 4-byte Reload
	imull	%ebx, %esi
	imull	%eax, %esi
	leal	16(%r9), %eax
	imull	%ebx, %eax
	addl	%edi, %eax
	movl	%eax, 256(%rsp)                 # 4-byte Spill
	movl	%ebx, %edx
	shll	$5, %edx
	addl	%edi, %esi
	movl	%esi, 244(%rsp)                 # 4-byte Spill
	movq	8(%r13), %rdi
	movq	8(%r14), %r13
	leaq	1(%rdi), %rax
	movq	%rax, 328(%rsp)                 # 8-byte Spill
	leaq	(%r13,%r12,4), %rax
	movq	%rax, 320(%rsp)                 # 8-byte Spill
	movq	104(%rsp), %rax                 # 8-byte Reload
	movq	%r8, 176(%rsp)                  # 8-byte Spill
	addl	%r8d, %eax
	movl	%eax, 144(%rsp)                 # 4-byte Spill
	movl	%edx, %r8d
	leal	1(%r11), %r15d
	movq	%r9, 80(%rsp)                   # 8-byte Spill
	leal	1(%r9), %eax
	movq	%rax, 160(%rsp)                 # 8-byte Spill
	movq	%rbx, 40(%rsp)                  # 8-byte Spill
	leal	(%rbx,%rbx), %esi
	xorl	%ebx, %ebx
	movq	%r11, 136(%rsp)                 # 8-byte Spill
                                        # kill: def $r11d killed $r11d killed $r11 def $r11
	movq	%r11, 64(%rsp)                  # 8-byte Spill
	movq	%rdi, %r11
	jmp	.LBB9_173
	.p2align	4, 0x90
.LBB9_172:                              #   in Loop: Header=BB9_173 Depth=5
	movq	56(%rsp), %rdi                  # 8-byte Reload
	leal	1(%rdi), %eax
	movl	8(%rsp), %ecx                   # 4-byte Reload
	movq	64(%rsp), %rdx                  # 8-byte Reload
	addl	%ecx, %edx
	movq	%rdx, 64(%rsp)                  # 8-byte Spill
	addl	%ecx, %r15d
	cmpl	232(%rsp), %edi                 # 4-byte Folded Reload
	movl	%eax, %ebx
	je	.LBB9_169
.LBB9_173:                              #   Parent Loop BB9_161 Depth=1
                                        #     Parent Loop BB9_164 Depth=2
                                        #       Parent Loop BB9_167 Depth=3
                                        #         Parent Loop BB9_170 Depth=4
                                        # =>        This Loop Header: Depth=5
                                        #             Child Loop BB9_188 Depth 6
                                        #             Child Loop BB9_179 Depth 6
	movl	%ebx, %eax
	imull	%r10d, %eax
	addl	32(%rsp), %eax                  # 4-byte Folded Reload
	addl	128(%rsp), %eax                 # 4-byte Folded Reload
	imull	152(%rsp), %eax                 # 4-byte Folded Reload
	addl	16(%rsp), %eax                  # 4-byte Folded Reload
	movq	200(%rsp), %rdx                 # 8-byte Reload
	leal	(%rdx,%rbx), %r12d
	imull	%ecx, %r12d
	cltq
	leaq	(%r11,%rax,4), %r14
	cmpl	$16, 100(%rsp)                  # 4-byte Folded Reload
	movq	%rbx, 56(%rsp)                  # 8-byte Spill
	jae	.LBB9_180
.LBB9_174:                              #   in Loop: Header=BB9_173 Depth=5
	xorl	%eax, %eax
.LBB9_175:                              #   in Loop: Header=BB9_173 Depth=5
	movq	%rax, %r9
	testb	$1, 24(%rsp)                    # 1-byte Folded Reload
	je	.LBB9_177
# %bb.176:                              #   in Loop: Header=BB9_173 Depth=5
	addl	%eax, %r12d
	movq	80(%rsp), %rcx                  # 8-byte Reload
	addl	%eax, %ecx
	imull	40(%rsp), %ecx                  # 4-byte Folded Reload
	addl	16(%rsp), %ecx                  # 4-byte Folded Reload
	vmovss	(%r14), %xmm0                   # xmm0 = mem[0],zero,zero,zero
	movslq	%ecx, %rcx
	vmovss	(%rbp,%rcx,4), %xmm1            # xmm1 = mem[0],zero,zero,zero
	movslq	%r12d, %rcx
	vfmadd213ss	(%r13,%rcx,4), %xmm0, %xmm1 # xmm1 = (xmm0 * xmm1) + mem
	vmovss	%xmm1, (%r13,%rcx,4)
	movq	%rax, %r9
	orq	$1, %r9
.LBB9_177:                              #   in Loop: Header=BB9_173 Depth=5
	notq	%rax
	cmpq	192(%rsp), %rax                 # 8-byte Folded Reload
	je	.LBB9_172
# %bb.178:                              #   in Loop: Header=BB9_173 Depth=5
	leal	(%r15,%r9), %eax
	movq	160(%rsp), %rcx                 # 8-byte Reload
	addl	%r9d, %ecx
	movq	%r15, 184(%rsp)                 # 8-byte Spill
	movq	%r11, %rdi
	movl	%r8d, %r11d
	movq	%r10, %r15
	movq	40(%rsp), %r10                  # 8-byte Reload
	imull	%r10d, %ecx
	movq	16(%rsp), %r12                  # 8-byte Reload
	addl	%r12d, %ecx
	movq	24(%rsp), %rdx                  # 8-byte Reload
	subq	%r9, %rdx
	movq	80(%rsp), %rbx                  # 8-byte Reload
	addl	%r9d, %ebx
	imull	%r10d, %ebx
	movq	%r15, %r10
	movq	%rdi, %r11
	movq	184(%rsp), %r15                 # 8-byte Reload
	addl	%r12d, %ebx
	movq	64(%rsp), %rdi                  # 8-byte Reload
	addl	%r9d, %edi
	.p2align	4, 0x90
.LBB9_179:                              #   Parent Loop BB9_161 Depth=1
                                        #     Parent Loop BB9_164 Depth=2
                                        #       Parent Loop BB9_167 Depth=3
                                        #         Parent Loop BB9_170 Depth=4
                                        #           Parent Loop BB9_173 Depth=5
                                        # =>          This Inner Loop Header: Depth=6
	vmovss	(%r14), %xmm0                   # xmm0 = mem[0],zero,zero,zero
	movslq	%ebx, %rbx
	vmovss	(%rbp,%rbx,4), %xmm1            # xmm1 = mem[0],zero,zero,zero
	movslq	%edi, %rdi
	vfmadd213ss	(%r13,%rdi,4), %xmm0, %xmm1 # xmm1 = (xmm0 * xmm1) + mem
	vmovss	%xmm1, (%r13,%rdi,4)
	vmovss	(%r14), %xmm0                   # xmm0 = mem[0],zero,zero,zero
	movslq	%ecx, %rcx
	vmovss	(%rbp,%rcx,4), %xmm1            # xmm1 = mem[0],zero,zero,zero
	cltq
	vfmadd213ss	(%r13,%rax,4), %xmm0, %xmm1 # xmm1 = (xmm0 * xmm1) + mem
	vmovss	%xmm1, (%r13,%rax,4)
	addl	$2, %eax
	addl	%esi, %ecx
	addl	%esi, %ebx
	addl	$2, %edi
	addq	$-2, %rdx
	jne	.LBB9_179
	jmp	.LBB9_172
	.p2align	4, 0x90
.LBB9_180:                              #   in Loop: Header=BB9_173 Depth=5
	movl	144(%rsp), %eax                 # 4-byte Reload
	cmpl	176(%rsp), %eax                 # 4-byte Folded Reload
	jl	.LBB9_174
# %bb.181:                              #   in Loop: Header=BB9_173 Depth=5
	cmpl	$1, 40(%rsp)                    # 4-byte Folded Reload
	jne	.LBB9_174
# %bb.182:                              #   in Loop: Header=BB9_173 Depth=5
                                        # kill: def $ecx killed $ecx def $rcx
	imull	%ebx, %ecx
	addl	136(%rsp), %ecx                 # 4-byte Folded Reload
	movq	104(%rsp), %rdx                 # 8-byte Reload
	leal	(%rcx,%rdx), %eax
	cmpl	%ecx, %eax
	jl	.LBB9_174
# %bb.183:                              #   in Loop: Header=BB9_173 Depth=5
	movq	%rdx, %rax
	shrq	$32, %rax
	movl	$0, %eax
	jne	.LBB9_175
# %bb.184:                              #   in Loop: Header=BB9_173 Depth=5
	movl	88(%rsp), %eax                  # 4-byte Reload
	imull	56(%rsp), %eax                  # 4-byte Folded Reload
	addl	224(%rsp), %eax                 # 4-byte Folded Reload
	cltq
	movq	328(%rsp), %rdx                 # 8-byte Reload
	leaq	(%rdx,%rax,4), %rax
	movslq	%ecx, %rcx
	leaq	(,%rcx,4), %rdx
	addq	%r13, %rdx
	movq	320(%rsp), %rdi                 # 8-byte Reload
	leaq	(%rdi,%rcx,4), %rdi
	cmpq	%rdi, %r14
	setb	%bl
	cmpq	%rdx, %rax
	seta	%al
	cmpq	344(%rsp), %rdx                 # 8-byte Folded Reload
	setb	%cl
	cmpq	%rdi, 336(%rsp)                 # 8-byte Folded Reload
	setb	%dl
	testb	%al, %bl
	jne	.LBB9_174
# %bb.185:                              #   in Loop: Header=BB9_173 Depth=5
	movl	$0, %eax
	andb	%dl, %cl
	jne	.LBB9_175
# %bb.186:                              #   in Loop: Header=BB9_173 Depth=5
	cmpq	$0, 312(%rsp)                   # 8-byte Folded Reload
	je	.LBB9_195
# %bb.187:                              #   in Loop: Header=BB9_173 Depth=5
	vbroadcastss	(%r14), %ymm0
	movq	248(%rsp), %rax                 # 8-byte Reload
	movl	244(%rsp), %ecx                 # 4-byte Reload
                                        # kill: def $ecx killed $ecx def $rcx
	movl	256(%rsp), %edx                 # 4-byte Reload
                                        # kill: def $edx killed $edx def $rdx
	movq	64(%rsp), %rbx                  # 8-byte Reload
                                        # kill: def $ebx killed $ebx killed $rbx def $rbx
	xorl	%r10d, %r10d
	.p2align	4, 0x90
.LBB9_188:                              #   Parent Loop BB9_161 Depth=1
                                        #     Parent Loop BB9_164 Depth=2
                                        #       Parent Loop BB9_167 Depth=3
                                        #         Parent Loop BB9_170 Depth=4
                                        #           Parent Loop BB9_173 Depth=5
                                        # =>          This Inner Loop Header: Depth=6
	movslq	%ecx, %rcx
	vmovups	(%rbp,%rcx,4), %ymm1
	vmovups	32(%rbp,%rcx,4), %ymm2
	movslq	%ebx, %rbx
	vfmadd213ps	(%r13,%rbx,4), %ymm0, %ymm1 # ymm1 = (ymm0 * ymm1) + mem
	vfmadd213ps	32(%r13,%rbx,4), %ymm0, %ymm2 # ymm2 = (ymm0 * ymm2) + mem
	vmovups	%ymm1, (%r13,%rbx,4)
	vmovups	%ymm2, 32(%r13,%rbx,4)
	leal	16(%rbx), %edi
	movslq	%edx, %rdx
	vmovups	(%rbp,%rdx,4), %ymm1
	vmovups	32(%rbp,%rdx,4), %ymm2
	movslq	%edi, %rdi
	vfmadd213ps	(%r13,%rdi,4), %ymm0, %ymm1 # ymm1 = (ymm0 * ymm1) + mem
	vfmadd213ps	32(%r13,%rdi,4), %ymm0, %ymm2 # ymm2 = (ymm0 * ymm2) + mem
	vmovups	%ymm1, (%r13,%rdi,4)
	vmovups	%ymm2, 32(%r13,%rdi,4)
	addq	$32, %r10
	addl	$32, %ebx
	addl	%r8d, %edx
	addl	%r8d, %ecx
	addq	$2, %rax
	jne	.LBB9_188
# %bb.189:                              #   in Loop: Header=BB9_173 Depth=5
	testb	$1, 304(%rsp)                   # 1-byte Folded Reload
	je	.LBB9_191
.LBB9_190:                              #   in Loop: Header=BB9_173 Depth=5
	leal	(%r12,%r10), %eax
	addl	80(%rsp), %r10d                 # 4-byte Folded Reload
	imull	40(%rsp), %r10d                 # 4-byte Folded Reload
	addl	16(%rsp), %r10d                 # 4-byte Folded Reload
	vbroadcastss	(%r14), %ymm0
	movslq	%r10d, %rcx
	vmovups	(%rbp,%rcx,4), %ymm1
	vmovups	32(%rbp,%rcx,4), %ymm2
	cltq
	vfmadd213ps	(%r13,%rax,4), %ymm0, %ymm1 # ymm1 = (ymm0 * ymm1) + mem
	vfmadd213ps	32(%r13,%rax,4), %ymm0, %ymm2 # ymm2 = (ymm0 * ymm2) + mem
	vmovups	%ymm1, (%r13,%rax,4)
	vmovups	%ymm2, 32(%r13,%rax,4)
.LBB9_191:                              #   in Loop: Header=BB9_173 Depth=5
	movq	296(%rsp), %rcx                 # 8-byte Reload
	movq	%rcx, %rax
	cmpq	24(%rsp), %rcx                  # 8-byte Folded Reload
	movq	72(%rsp), %r10                  # 8-byte Reload
	je	.LBB9_172
	jmp	.LBB9_175
.LBB9_195:                              #   in Loop: Header=BB9_173 Depth=5
	xorl	%r10d, %r10d
	testb	$1, 304(%rsp)                   # 1-byte Folded Reload
	jne	.LBB9_190
	jmp	.LBB9_191
.LBB9_197:
	leaq	352(%rsp), %rdi
	vzeroupper
	callq	_ZN11Chronometer4stopEv
	movq	384(%rsp), %rbx                 # 8-byte Reload
	testq	%rbx, %rbx
	je	.LBB9_199
# %bb.198:
	leaq	352(%rsp), %rdi
	callq	_ZN11Chronometer7getTimeEv
	vmovss	%xmm0, (%rbx)
.LBB9_199:
	movq	168(%rsp), %rax                 # 8-byte Reload
	addq	$392, %rsp                      # imm = 0x188
	.cfi_def_cfa_offset 56
	popq	%rbx
	.cfi_def_cfa_offset 48
	popq	%r12
	.cfi_def_cfa_offset 40
	popq	%r13
	.cfi_def_cfa_offset 32
	popq	%r14
	.cfi_def_cfa_offset 24
	popq	%r15
	.cfi_def_cfa_offset 16
	popq	%rbp
	.cfi_def_cfa_offset 8
	retq
.LBB9_200:
	.cfi_def_cfa_offset 448
	movl	$.L.str.5, %edi
	movl	$.L.str.1, %esi
	movl	$.L__PRETTY_FUNCTION__._ZNK6TensorIfE13convolveNaiveEPK6KernelIfEjjjPf, %ecx
	movl	$641, %edx                      # imm = 0x281
	callq	__assert_fail
.LBB9_201:
.Ltmp125:
	jmp	.LBB9_203
.LBB9_202:
.Ltmp122:
.LBB9_203:
	movq	%rax, %rbx
	movq	168(%rsp), %rax                 # 8-byte Reload
	addq	$40, %rax
	movq	(%rax), %rdi
	testq	%rdi, %rdi
	je	.LBB9_205
# %bb.204:
	callq	_ZdlPv
.LBB9_205:
	movq	168(%rsp), %rdi                 # 8-byte Reload
	callq	_ZdlPv
	movq	%rbx, %rdi
	callq	_Unwind_Resume@PLT
.Lfunc_end9:
	.size	_ZNK6TensorIfE13convolveNaiveEPK6KernelIfEjjjPf, .Lfunc_end9-_ZNK6TensorIfE13convolveNaiveEPK6KernelIfEjjjPf
	.cfi_endproc
	.section	.rodata._ZNK6TensorIfE13convolveNaiveEPK6KernelIfEjjjPf,"aG",@progbits,_ZNK6TensorIfE13convolveNaiveEPK6KernelIfEjjjPf,comdat
	.p2align	3
.LJTI9_0:
	.quad	.LBB9_7
	.quad	.LBB9_97
	.quad	.LBB9_51
	.quad	.LBB9_74
	.quad	.LBB9_29
	.quad	.LBB9_136
	.quad	.LBB9_158
	.section	.gcc_except_table._ZNK6TensorIfE13convolveNaiveEPK6KernelIfEjjjPf,"aG",@progbits,_ZNK6TensorIfE13convolveNaiveEPK6KernelIfEjjjPf,comdat
	.p2align	2
GCC_except_table9:
.Lexception4:
	.byte	255                             # @LPStart Encoding = omit
	.byte	255                             # @TType Encoding = omit
	.byte	1                               # Call site Encoding = uleb128
	.uleb128 .Lcst_end4-.Lcst_begin4
.Lcst_begin4:
	.uleb128 .Lfunc_begin4-.Lfunc_begin4    # >> Call Site 1 <<
	.uleb128 .Ltmp120-.Lfunc_begin4         #   Call between .Lfunc_begin4 and .Ltmp120
	.byte	0                               #     has no landing pad
	.byte	0                               #   On action: cleanup
	.uleb128 .Ltmp120-.Lfunc_begin4         # >> Call Site 2 <<
	.uleb128 .Ltmp121-.Ltmp120              #   Call between .Ltmp120 and .Ltmp121
	.uleb128 .Ltmp122-.Lfunc_begin4         #     jumps to .Ltmp122
	.byte	0                               #   On action: cleanup
	.uleb128 .Ltmp123-.Lfunc_begin4         # >> Call Site 3 <<
	.uleb128 .Ltmp124-.Ltmp123              #   Call between .Ltmp123 and .Ltmp124
	.uleb128 .Ltmp125-.Lfunc_begin4         #     jumps to .Ltmp125
	.byte	0                               #   On action: cleanup
	.uleb128 .Ltmp124-.Lfunc_begin4         # >> Call Site 4 <<
	.uleb128 .Lfunc_end9-.Ltmp124           #   Call between .Ltmp124 and .Lfunc_end9
	.byte	0                               #     has no landing pad
	.byte	0                               #   On action: cleanup
.Lcst_end4:
	.p2align	2
                                        # -- End function
	.section	.text._ZNK6TensorIfEixEi,"axG",@progbits,_ZNK6TensorIfEixEi,comdat
	.weak	_ZNK6TensorIfEixEi              # -- Begin function _ZNK6TensorIfEixEi
	.p2align	4, 0x90
	.type	_ZNK6TensorIfEixEi,@function
_ZNK6TensorIfEixEi:                     # 
	.cfi_startproc
# %bb.0:
	movslq	%esi, %rax
	shlq	$2, %rax
	addq	8(%rdi), %rax
	retq
.Lfunc_end10:
	.size	_ZNK6TensorIfEixEi, .Lfunc_end10-_ZNK6TensorIfEixEi
	.cfi_endproc
                                        # -- End function
	.section	.text._ZN6TensorIfEixEi,"axG",@progbits,_ZN6TensorIfEixEi,comdat
	.weak	_ZN6TensorIfEixEi               # -- Begin function _ZN6TensorIfEixEi
	.p2align	4, 0x90
	.type	_ZN6TensorIfEixEi,@function
_ZN6TensorIfEixEi:                      # 
	.cfi_startproc
# %bb.0:
	movslq	%esi, %rax
	shlq	$2, %rax
	addq	8(%rdi), %rax
	retq
.Lfunc_end11:
	.size	_ZN6TensorIfEixEi, .Lfunc_end11-_ZN6TensorIfEixEi
	.cfi_endproc
                                        # -- End function
	.section	.text._ZNK6TensorIfE22convolveNaiveOptimisedEPK6KernelIfEjjjPf,"axG",@progbits,_ZNK6TensorIfE22convolveNaiveOptimisedEPK6KernelIfEjjjPf,comdat
	.weak	_ZNK6TensorIfE22convolveNaiveOptimisedEPK6KernelIfEjjjPf # -- Begin function _ZNK6TensorIfE22convolveNaiveOptimisedEPK6KernelIfEjjjPf
	.p2align	4, 0x90
	.type	_ZNK6TensorIfE22convolveNaiveOptimisedEPK6KernelIfEjjjPf,@function
_ZNK6TensorIfE22convolveNaiveOptimisedEPK6KernelIfEjjjPf: # 
.Lfunc_begin5:
	.cfi_startproc
	.cfi_personality 3, __gxx_personality_v0
	.cfi_lsda 3, .Lexception5
# %bb.0:
	pushq	%rbp
	.cfi_def_cfa_offset 16
	pushq	%r15
	.cfi_def_cfa_offset 24
	pushq	%r14
	.cfi_def_cfa_offset 32
	pushq	%r13
	.cfi_def_cfa_offset 40
	pushq	%r12
	.cfi_def_cfa_offset 48
	pushq	%rbx
	.cfi_def_cfa_offset 56
	subq	$600, %rsp                      # imm = 0x258
	.cfi_def_cfa_offset 656
	.cfi_offset %rbx, -56
	.cfi_offset %r12, -48
	.cfi_offset %r13, -40
	.cfi_offset %r14, -32
	.cfi_offset %r15, -24
	.cfi_offset %rbp, -16
	movq	%r9, 576(%rsp)                  # 8-byte Spill
                                        # kill: def $r8d killed $r8d def $r8
	movq	%r8, 16(%rsp)                   # 8-byte Spill
	movslq	28(%rdi), %rax
	movq	%rax, 224(%rsp)                 # 8-byte Spill
	cmpl	28(%rsi), %eax
	jne	.LBB12_197
# %bb.1:
	movl	%edx, %ebp
	movl	16(%rsi), %r14d
	movl	24(%rsi), %r8d
	movq	%rsi, 168(%rsp)                 # 8-byte Spill
	movslq	20(%rsi), %r13
	addl	%ecx, %ecx
	movl	20(%rdi), %eax
	addl	%ecx, %eax
	subl	%r13d, %eax
	movl	%eax, 136(%rsp)                 # 4-byte Spill
	xorl	%edx, %edx
	divl	%ebp
	movl	%eax, %ebx
	movq	%rdi, 200(%rsp)                 # 8-byte Spill
	addl	24(%rdi), %ecx
	movl	%r8d, 28(%rsp)                  # 4-byte Spill
	subl	%r8d, %ecx
	movl	%ecx, %eax
	xorl	%edx, %edx
	movq	%rbp, 272(%rsp)                 # 8-byte Spill
	divl	%ebp
	movl	%eax, %ecx
	movq	%rbx, 344(%rsp)                 # 8-byte Spill
	leal	1(%rbx), %r15d
	movq	%rcx, 320(%rsp)                 # 8-byte Spill
	leal	1(%rcx), %r12d
	movl	$72, %edi
	callq	_Znwm
	movq	%rax, %rbp
	movq	$_ZTV6TensorIfE+16, (%rax)
	movl	$1, 16(%rax)
	movl	%r15d, 20(%rax)
	movl	%r12d, 24(%rax)
	movl	%r14d, 28(%rax)
	vxorps	%xmm0, %xmm0, %xmm0
	vmovups	%xmm0, 40(%rax)
	movl	$1, 544(%rsp)
	movq	$0, 56(%rax)
	movb	$1, 64(%rax)
	movl	%r15d, %eax
	imull	%r14d, %eax
	imull	%r12d, %eax
	movl	%eax, 32(%rbp)
.Ltmp126:
	movl	$16, %edi
	movq	%rbp, 96(%rsp)                  # 8-byte Spill
	callq	_Znwm
.Ltmp127:
# %bb.2:
	movq	%rax, %rbx
	movl	$1, (%rax)
	movl	%r15d, 192(%rsp)                # 4-byte Spill
	movl	%r15d, 4(%rax)
	movl	%r12d, 68(%rsp)                 # 4-byte Spill
	movl	%r12d, 8(%rax)
	movl	%r14d, 156(%rsp)                # 4-byte Spill
	movl	%r14d, 12(%rax)
	movq	40(%rbp), %rdi
	testq	%rdi, %rdi
	je	.LBB12_4
# %bb.3:
	callq	_ZdlPv
.LBB12_4:
	movq	%rbx, 40(%rbp)
	addq	$16, %rbx
	movq	%rbx, 48(%rbp)
	movq	%rbx, 56(%rbp)
.Ltmp129:
	leaq	544(%rsp), %rsi
	movq	%rbp, %rdi
	callq	_ZN6TensorIfE9init_dataERKN6tensor4initE
.Ltmp130:
# %bb.5:
	vxorps	%xmm0, %xmm0, %xmm0
	vmovaps	%xmm0, 544(%rsp)
	movb	$1, 560(%rsp)
	leaq	544(%rsp), %rdi
	callq	_ZN11Chronometer5startEv
	movq	16(%rsp), %rcx                  # 8-byte Reload
	decl	%ecx
	cmpl	$6, %ecx
	movq	272(%rsp), %rdx                 # 8-byte Reload
	ja	.LBB12_193
# %bb.6:
	movl	156(%rsp), %ebx                 # 4-byte Reload
	movslq	%ebx, %rax
	movq	%rax, 16(%rsp)                  # 8-byte Spill
	movq	%r13, 368(%rsp)                 # 8-byte Spill
	jmpq	*.LJTI12_0(,%rcx,8)
.LBB12_118:
	cmpl	$0, 224(%rsp)                   # 4-byte Folded Reload
	movl	192(%rsp), %ecx                 # 4-byte Reload
	je	.LBB12_194
# %bb.119:
	movq	168(%rsp), %rax                 # 8-byte Reload
	movl	28(%rax), %esi
	movl	16(%rax), %r10d
	imull	%esi, %r10d
	movq	%r13, %r14
	andq	$-2, %r14
	movl	%r10d, %eax
	negl	%eax
	movl	%eax, 296(%rsp)                 # 4-byte Spill
	leal	(%r10,%r10), %eax
	movl	%eax, 44(%rsp)                  # 4-byte Spill
	xorl	%eax, %eax
	movq	%rax, 80(%rsp)                  # 8-byte Spill
	movl	%esi, 312(%rsp)                 # 4-byte Spill
	movq	%r10, 208(%rsp)                 # 8-byte Spill
	jmp	.LBB12_120
	.p2align	4, 0x90
.LBB12_132:                             #   in Loop: Header=BB12_120 Depth=1
	movq	80(%rsp), %rax                  # 8-byte Reload
	incl	%eax
	movq	%rax, 80(%rsp)                  # 8-byte Spill
	cmpl	224(%rsp), %eax                 # 4-byte Folded Reload
	je	.LBB12_194
.LBB12_120:                             # =>This Loop Header: Depth=1
                                        #     Child Loop BB12_122 Depth 2
                                        #       Child Loop BB12_124 Depth 3
                                        #         Child Loop BB12_127 Depth 4
                                        #           Child Loop BB12_129 Depth 5
                                        #             Child Loop BB12_140 Depth 6
	testl	%ebx, %ebx
	je	.LBB12_132
# %bb.121:                              #   in Loop: Header=BB12_120 Depth=1
	movq	80(%rsp), %rdi                  # 8-byte Reload
	movl	%edi, %eax
	subl	%esi, %eax
	subl	%r10d, %eax
	movl	%eax, 232(%rsp)                 # 4-byte Spill
	movq	96(%rsp), %rax                  # 8-byte Reload
	movl	28(%rax), %ebp
	movl	24(%rax), %eax
	movl	%ebp, 248(%rsp)                 # 4-byte Spill
	imull	%ebp, %eax
	movl	%eax, 160(%rsp)                 # 4-byte Spill
	movl	$0, 240(%rsp)                   # 4-byte Folded Spill
	movl	%edi, %eax
	movl	%edi, 264(%rsp)                 # 4-byte Spill
	jmp	.LBB12_122
	.p2align	4, 0x90
.LBB12_131:                             #   in Loop: Header=BB12_122 Depth=2
	movl	240(%rsp), %eax                 # 4-byte Reload
	incl	%eax
	movl	312(%rsp), %esi                 # 4-byte Reload
	addl	%esi, 264(%rsp)                 # 4-byte Folded Spill
	movl	156(%rsp), %ebx                 # 4-byte Reload
	movl	%eax, 240(%rsp)                 # 4-byte Spill
	cmpl	%ebx, %eax
	je	.LBB12_132
.LBB12_122:                             #   Parent Loop BB12_120 Depth=1
                                        # =>  This Loop Header: Depth=2
                                        #       Child Loop BB12_124 Depth 3
                                        #         Child Loop BB12_127 Depth 4
                                        #           Child Loop BB12_129 Depth 5
                                        #             Child Loop BB12_140 Depth 6
	addl	%esi, 232(%rsp)                 # 4-byte Folded Spill
	cmpl	$0, 68(%rsp)                    # 4-byte Folded Reload
	je	.LBB12_131
# %bb.123:                              #   in Loop: Header=BB12_122 Depth=2
	movl	240(%rsp), %eax                 # 4-byte Reload
	subl	248(%rsp), %eax                 # 4-byte Folded Reload
	subl	160(%rsp), %eax                 # 4-byte Folded Reload
	movl	%eax, 40(%rsp)                  # 4-byte Spill
	movl	$0, 72(%rsp)                    # 4-byte Folded Spill
	xorl	%eax, %eax
	movq	%rax, 256(%rsp)                 # 8-byte Spill
	jmp	.LBB12_124
	.p2align	4, 0x90
.LBB12_138:                             #   in Loop: Header=BB12_124 Depth=3
	movq	256(%rsp), %rsi                 # 8-byte Reload
	leal	1(%rsi), %eax
	movl	72(%rsp), %ecx                  # 4-byte Reload
	addl	272(%rsp), %ecx                 # 4-byte Folded Reload
	movl	%ecx, 72(%rsp)                  # 4-byte Spill
	cmpl	320(%rsp), %esi                 # 4-byte Folded Reload
                                        # kill: def $eax killed $eax def $rax
	movq	%rax, 256(%rsp)                 # 8-byte Spill
	movl	192(%rsp), %ecx                 # 4-byte Reload
	je	.LBB12_131
.LBB12_124:                             #   Parent Loop BB12_120 Depth=1
                                        #     Parent Loop BB12_122 Depth=2
                                        # =>    This Loop Header: Depth=3
                                        #         Child Loop BB12_127 Depth 4
                                        #           Child Loop BB12_129 Depth 5
                                        #             Child Loop BB12_140 Depth 6
	movl	40(%rsp), %eax                  # 4-byte Reload
	addl	248(%rsp), %eax                 # 4-byte Folded Reload
	movl	%eax, 40(%rsp)                  # 4-byte Spill
	testl	%ecx, %ecx
	je	.LBB12_138
# %bb.125:                              #   in Loop: Header=BB12_124 Depth=3
	cmpl	$0, 28(%rsp)                    # 4-byte Folded Reload
	je	.LBB12_138
# %bb.126:                              #   in Loop: Header=BB12_124 Depth=3
	movq	168(%rsp), %rax                 # 8-byte Reload
	movl	24(%rax), %r15d
	movl	%r10d, %ecx
	imull	%r15d, %ecx
	movl	232(%rsp), %eax                 # 4-byte Reload
	subl	%ecx, %eax
	movl	%eax, 120(%rsp)                 # 4-byte Spill
	movq	256(%rsp), %rax                 # 8-byte Reload
                                        # kill: def $eax killed $eax killed $rax def $rax
	imull	272(%rsp), %eax                 # 4-byte Folded Reload
	movq	%rax, 176(%rsp)                 # 8-byte Spill
	movq	200(%rsp), %rax                 # 8-byte Reload
	movl	28(%rax), %eax
	movq	%rax, 32(%rsp)                  # 8-byte Spill
	addl	%eax, %eax
	movl	%eax, 288(%rsp)                 # 4-byte Spill
	movl	296(%rsp), %eax                 # 4-byte Reload
	imull	%r15d, %eax
	movl	%eax, 144(%rsp)                 # 4-byte Spill
	imull	44(%rsp), %r15d                 # 4-byte Folded Reload
	movl	$1, 48(%rsp)                    # 4-byte Folded Spill
	movl	$0, 104(%rsp)                   # 4-byte Folded Spill
	movl	40(%rsp), %eax                  # 4-byte Reload
	movl	%eax, 128(%rsp)                 # 4-byte Spill
	xorl	%eax, %eax
	movq	%rax, 112(%rsp)                 # 8-byte Spill
	jmp	.LBB12_127
	.p2align	4, 0x90
.LBB12_137:                             #   in Loop: Header=BB12_127 Depth=4
	movq	112(%rsp), %rdi                 # 8-byte Reload
	leal	1(%rdi), %eax
	movq	272(%rsp), %rsi                 # 8-byte Reload
	addl	%esi, 48(%rsp)                  # 4-byte Folded Spill
	addl	%esi, 104(%rsp)                 # 4-byte Folded Spill
	cmpl	344(%rsp), %edi                 # 4-byte Folded Reload
                                        # kill: def $eax killed $eax def $rax
	movq	%rax, 112(%rsp)                 # 8-byte Spill
	je	.LBB12_138
.LBB12_127:                             #   Parent Loop BB12_120 Depth=1
                                        #     Parent Loop BB12_122 Depth=2
                                        #       Parent Loop BB12_124 Depth=3
                                        # =>      This Loop Header: Depth=4
                                        #           Child Loop BB12_129 Depth 5
                                        #             Child Loop BB12_140 Depth 6
	movl	128(%rsp), %eax                 # 4-byte Reload
	addl	160(%rsp), %eax                 # 4-byte Folded Reload
	movl	%eax, 128(%rsp)                 # 4-byte Spill
	testl	%r13d, %r13d
	je	.LBB12_137
# %bb.128:                              #   in Loop: Header=BB12_127 Depth=4
	movq	112(%rsp), %rax                 # 8-byte Reload
                                        # kill: def $eax killed $eax killed $rax
	imull	272(%rsp), %eax                 # 4-byte Folded Reload
	movl	%eax, 216(%rsp)                 # 4-byte Spill
	movslq	128(%rsp), %rsi                 # 4-byte Folded Reload
	movq	200(%rsp), %rax                 # 8-byte Reload
	movl	24(%rax), %r11d
	movq	8(%rax), %rdi
	movq	168(%rsp), %rax                 # 8-byte Reload
	movq	8(%rax), %r9
	movq	96(%rsp), %rax                  # 8-byte Reload
	movq	8(%rax), %r12
	vmovss	(%r12,%rsi,4), %xmm0            # xmm0 = mem[0],zero,zero,zero
	movl	%r11d, %eax
	imull	48(%rsp), %eax                  # 4-byte Folded Reload
	movl	72(%rsp), %r8d                  # 4-byte Reload
	addl	%r8d, %eax
	movq	32(%rsp), %rdx                  # 8-byte Reload
	imull	%edx, %eax
	movq	80(%rsp), %rbx                  # 8-byte Reload
	addl	%ebx, %eax
	movl	288(%rsp), %ebp                 # 4-byte Reload
	imull	%r11d, %ebp
	movl	%r11d, 12(%rsp)                 # 4-byte Spill
	imull	104(%rsp), %r11d                # 4-byte Folded Reload
	addl	%r8d, %r11d
	imull	%edx, %r11d
	addl	%ebx, %r11d
	xorl	%edx, %edx
	movq	%rdx, 16(%rsp)                  # 8-byte Spill
	movl	264(%rsp), %edx                 # 4-byte Reload
	movl	120(%rsp), %ebx                 # 4-byte Reload
	jmp	.LBB12_129
	.p2align	4, 0x90
.LBB12_136:                             #   in Loop: Header=BB12_129 Depth=5
	incl	%ebx
	movq	32(%rsp), %rdx                  # 8-byte Reload
	addl	%edx, %eax
	movl	136(%rsp), %r11d                # 4-byte Reload
	addl	%edx, %r11d
	movl	56(%rsp), %edx                  # 4-byte Reload
	addl	%r10d, %edx
	movq	%rbx, 16(%rsp)                  # 8-byte Spill
	cmpl	28(%rsp), %ebx                  # 4-byte Folded Reload
	movl	88(%rsp), %ebx                  # 4-byte Reload
	je	.LBB12_137
.LBB12_129:                             #   Parent Loop BB12_120 Depth=1
                                        #     Parent Loop BB12_122 Depth=2
                                        #       Parent Loop BB12_124 Depth=3
                                        #         Parent Loop BB12_127 Depth=4
                                        # =>        This Loop Header: Depth=5
                                        #             Child Loop BB12_140 Depth 6
	addl	%r10d, %ebx
	cmpl	$1, %r13d
	movl	%r11d, 136(%rsp)                # 4-byte Spill
	movl	%edx, 56(%rsp)                  # 4-byte Spill
	movl	%ebx, 88(%rsp)                  # 4-byte Spill
	jne	.LBB12_139
# %bb.130:                              #   in Loop: Header=BB12_129 Depth=5
	xorl	%r11d, %r11d
	movl	%ebx, %r8d
	movq	16(%rsp), %rbx                  # 8-byte Reload
	testb	$1, %r13b
	je	.LBB12_136
	jmp	.LBB12_135
	.p2align	4, 0x90
.LBB12_139:                             #   in Loop: Header=BB12_129 Depth=5
	movl	%edx, %r8d
	movl	%r11d, %r13d
	movl	%eax, 184(%rsp)                 # 4-byte Spill
                                        # kill: def $eax killed $eax def $rax
	xorl	%r11d, %r11d
	.p2align	4, 0x90
.LBB12_140:                             #   Parent Loop BB12_120 Depth=1
                                        #     Parent Loop BB12_122 Depth=2
                                        #       Parent Loop BB12_124 Depth=3
                                        #         Parent Loop BB12_127 Depth=4
                                        #           Parent Loop BB12_129 Depth=5
                                        # =>          This Inner Loop Header: Depth=6
	movslq	%r13d, %r13
	movslq	%r8d, %r8
	vmovss	(%r9,%r8,4), %xmm1              # xmm1 = mem[0],zero,zero,zero
	vfmadd132ss	(%rdi,%r13,4), %xmm0, %xmm1 # xmm1 = (xmm1 * mem) + xmm0
	vmovss	%xmm1, (%r12,%rsi,4)
	leal	(%rcx,%r8), %r10d
	cltq
	movslq	%r10d, %rdx
	vmovss	(%r9,%rdx,4), %xmm0             # xmm0 = mem[0],zero,zero,zero
	vfmadd132ss	(%rdi,%rax,4), %xmm1, %xmm0 # xmm0 = (xmm0 * mem) + xmm1
	vmovss	%xmm0, (%r12,%rsi,4)
	addq	$2, %r11
	addl	%ebp, %eax
	addl	%ebp, %r13d
	addl	%r15d, %r8d
	cmpq	%r11, %r14
	jne	.LBB12_140
# %bb.133:                              #   in Loop: Header=BB12_129 Depth=5
	addl	144(%rsp), %r8d                 # 4-byte Folded Reload
	movq	368(%rsp), %r13                 # 8-byte Reload
	movq	208(%rsp), %r10                 # 8-byte Reload
	movl	184(%rsp), %eax                 # 4-byte Reload
	movq	16(%rsp), %rbx                  # 8-byte Reload
	testb	$1, %r13b
	je	.LBB12_136
.LBB12_135:                             #   in Loop: Header=BB12_129 Depth=5
	movq	%r10, %rdx
	movq	%r13, %r10
	movl	%eax, %r13d
	movq	176(%rsp), %rax                 # 8-byte Reload
	addl	%ebx, %eax
	addl	216(%rsp), %r11d                # 4-byte Folded Reload
	imull	12(%rsp), %r11d                 # 4-byte Folded Reload
	addl	%eax, %r11d
	imull	32(%rsp), %r11d                 # 4-byte Folded Reload
	addl	80(%rsp), %r11d                 # 4-byte Folded Reload
	addl	%ecx, %r8d
	movslq	%r11d, %r11
	movslq	%r8d, %rax
	vmovss	(%r9,%rax,4), %xmm1             # xmm1 = mem[0],zero,zero,zero
	movl	%r13d, %eax
	movq	%r10, %r13
	movq	%rdx, %r10
	vfmadd231ss	(%rdi,%r11,4), %xmm1, %xmm0 # xmm0 = (xmm1 * mem) + xmm0
	vmovss	%xmm0, (%r12,%rsi,4)
	jmp	.LBB12_136
.LBB12_44:
	cmpl	$0, 68(%rsp)                    # 4-byte Folded Reload
	movl	192(%rsp), %ecx                 # 4-byte Reload
	je	.LBB12_194
# %bb.45:
	movq	%rdx, %rdi
	movq	96(%rsp), %rax                  # 8-byte Reload
	movl	28(%rax), %eax
	movslq	%ecx, %rsi
	movq	%rsi, %rdx
	andq	$-2, %rdx
	movq	%rdx, 128(%rsp)                 # 8-byte Spill
	leal	(%rdi,%rdi), %edx
	movl	%edx, 296(%rsp)                 # 4-byte Spill
	movl	%eax, %edx
	negl	%edx
	movl	%edx, 44(%rsp)                  # 4-byte Spill
	movq	%rax, 248(%rsp)                 # 8-byte Spill
	addl	%eax, %eax
	movl	%eax, 240(%rsp)                 # 4-byte Spill
	xorl	%eax, %eax
	movq	%rax, 336(%rsp)                 # 8-byte Spill
	movl	$0, 232(%rsp)                   # 4-byte Folded Spill
	xorl	%eax, %eax
	movq	%rax, 280(%rsp)                 # 8-byte Spill
	movq	%rsi, 208(%rsp)                 # 8-byte Spill
	jmp	.LBB12_46
	.p2align	4, 0x90
.LBB12_160:                             #   in Loop: Header=BB12_46 Depth=1
	movq	280(%rsp), %rbp                 # 8-byte Reload
	leal	1(%rbp), %eax
	movq	%rdx, %rdi
	addl	%edx, 232(%rsp)                 # 4-byte Folded Spill
	movq	336(%rsp), %rdx                 # 8-byte Reload
	addl	248(%rsp), %edx                 # 4-byte Folded Reload
	movq	%rdx, 336(%rsp)                 # 8-byte Spill
	cmpl	320(%rsp), %ebp                 # 4-byte Folded Reload
                                        # kill: def $eax killed $eax def $rax
	movq	%rax, 280(%rsp)                 # 8-byte Spill
	je	.LBB12_194
.LBB12_46:                              # =>This Loop Header: Depth=1
                                        #     Child Loop BB12_48 Depth 2
                                        #       Child Loop BB12_50 Depth 3
                                        #         Child Loop BB12_53 Depth 4
                                        #           Child Loop BB12_55 Depth 5
                                        #             Child Loop BB12_168 Depth 6
	testl	%ebx, %ebx
	movq	%rdi, %rdx
	je	.LBB12_160
# %bb.47:                               #   in Loop: Header=BB12_46 Depth=1
	movq	248(%rsp), %rax                 # 8-byte Reload
                                        # kill: def $eax killed $eax killed $rax def $rax
	movq	280(%rsp), %rdi                 # 8-byte Reload
	imull	%edi, %eax
	movq	%rax, 360(%rsp)                 # 8-byte Spill
	movq	168(%rsp), %rax                 # 8-byte Reload
	movl	16(%rax), %ebp
	movl	28(%rax), %ebx
	movl	24(%rax), %eax
	imull	%ebp, %eax
	movl	%eax, 344(%rsp)                 # 4-byte Spill
	imull	%ebx, %eax
	movl	%eax, 40(%rsp)                  # 4-byte Spill
	movl	%ebx, 352(%rsp)                 # 4-byte Spill
	imull	%ebx, %ebp
	movl	%ebp, 160(%rsp)                 # 4-byte Spill
                                        # kill: def $edi killed $edi killed $rdi def $rdi
	imull	%edx, %edi
	movq	%rdi, 288(%rsp)                 # 8-byte Spill
	xorl	%eax, %eax
	movq	%rax, 312(%rsp)                 # 8-byte Spill
	movq	336(%rsp), %rax                 # 8-byte Reload
                                        # kill: def $eax killed $eax killed $rax
	movl	%eax, 144(%rsp)                 # 4-byte Spill
	jmp	.LBB12_48
	.p2align	4, 0x90
.LBB12_159:                             #   in Loop: Header=BB12_48 Depth=2
	movq	312(%rsp), %rax                 # 8-byte Reload
	incl	%eax
	incl	144(%rsp)                       # 4-byte Folded Spill
	movl	156(%rsp), %ebx                 # 4-byte Reload
	movq	%rax, 312(%rsp)                 # 8-byte Spill
	cmpl	%ebx, %eax
	je	.LBB12_160
.LBB12_48:                              #   Parent Loop BB12_46 Depth=1
                                        # =>  This Loop Header: Depth=2
                                        #       Child Loop BB12_50 Depth 3
                                        #         Child Loop BB12_53 Depth 4
                                        #           Child Loop BB12_55 Depth 5
                                        #             Child Loop BB12_168 Depth 6
	testl	%r13d, %r13d
	je	.LBB12_159
# %bb.49:                               #   in Loop: Header=BB12_48 Depth=2
	movq	360(%rsp), %rax                 # 8-byte Reload
	movq	312(%rsp), %rdi                 # 8-byte Reload
	addl	%edi, %eax
	movl	%eax, 256(%rsp)                 # 4-byte Spill
	movl	%edi, %eax
	subl	344(%rsp), %eax                 # 4-byte Folded Reload
	imull	352(%rsp), %eax                 # 4-byte Folded Reload
	movl	%eax, 264(%rsp)                 # 4-byte Spill
	movl	$0, 16(%rsp)                    # 4-byte Folded Spill
	movl	%edx, %eax
	movl	%edx, 72(%rsp)                  # 4-byte Spill
	jmp	.LBB12_50
	.p2align	4, 0x90
.LBB12_166:                             #   in Loop: Header=BB12_50 Depth=3
	movl	16(%rsp), %eax                  # 4-byte Reload
	incl	%eax
	incl	72(%rsp)                        # 4-byte Folded Spill
	movq	368(%rsp), %r13                 # 8-byte Reload
	movl	%eax, 16(%rsp)                  # 4-byte Spill
	cmpl	%r13d, %eax
	je	.LBB12_159
.LBB12_50:                              #   Parent Loop BB12_46 Depth=1
                                        #     Parent Loop BB12_48 Depth=2
                                        # =>    This Loop Header: Depth=3
                                        #         Child Loop BB12_53 Depth 4
                                        #           Child Loop BB12_55 Depth 5
                                        #             Child Loop BB12_168 Depth 6
	movl	264(%rsp), %eax                 # 4-byte Reload
	addl	40(%rsp), %eax                  # 4-byte Folded Reload
	movl	%eax, 264(%rsp)                 # 4-byte Spill
	cmpl	$0, 28(%rsp)                    # 4-byte Folded Reload
	je	.LBB12_166
# %bb.51:                               #   in Loop: Header=BB12_50 Depth=3
	cmpl	$0, 224(%rsp)                   # 4-byte Folded Reload
	je	.LBB12_166
# %bb.52:                               #   in Loop: Header=BB12_50 Depth=3
	movq	200(%rsp), %rax                 # 8-byte Reload
	movl	28(%rax), %edi
	movl	264(%rsp), %eax                 # 4-byte Reload
	subl	160(%rsp), %eax                 # 4-byte Folded Reload
	movl	%eax, 112(%rsp)                 # 4-byte Spill
	movq	96(%rsp), %rax                  # 8-byte Reload
	movl	24(%rax), %ebp
	movl	%ebp, %r11d
	imull	248(%rsp), %r11d                # 4-byte Folded Reload
	movl	256(%rsp), %eax                 # 4-byte Reload
	subl	%r11d, %eax
	movl	%eax, 12(%rsp)                  # 4-byte Spill
	movl	296(%rsp), %eax                 # 4-byte Reload
	movl	%edi, 56(%rsp)                  # 4-byte Spill
	imull	%edi, %eax
	movl	%eax, 120(%rsp)                 # 4-byte Spill
	movl	44(%rsp), %eax                  # 4-byte Reload
	imull	%ebp, %eax
	movl	%eax, 176(%rsp)                 # 4-byte Spill
	imull	240(%rsp), %ebp                 # 4-byte Folded Reload
	xorl	%eax, %eax
	movq	%rax, 48(%rsp)                  # 8-byte Spill
	movl	232(%rsp), %eax                 # 4-byte Reload
	movl	%eax, 104(%rsp)                 # 4-byte Spill
	jmp	.LBB12_53
	.p2align	4, 0x90
.LBB12_165:                             #   in Loop: Header=BB12_53 Depth=4
	movq	48(%rsp), %rax                  # 8-byte Reload
	incl	%eax
	incl	104(%rsp)                       # 4-byte Folded Spill
	movq	%rax, 48(%rsp)                  # 8-byte Spill
	cmpl	28(%rsp), %eax                  # 4-byte Folded Reload
	movl	192(%rsp), %ecx                 # 4-byte Reload
	je	.LBB12_166
.LBB12_53:                              #   Parent Loop BB12_46 Depth=1
                                        #     Parent Loop BB12_48 Depth=2
                                        #       Parent Loop BB12_50 Depth=3
                                        # =>      This Loop Header: Depth=4
                                        #           Child Loop BB12_55 Depth 5
                                        #             Child Loop BB12_168 Depth 6
	movl	112(%rsp), %eax                 # 4-byte Reload
	addl	160(%rsp), %eax                 # 4-byte Folded Reload
	movl	%eax, 112(%rsp)                 # 4-byte Spill
	testl	%ecx, %ecx
	je	.LBB12_165
# %bb.54:                               #   in Loop: Header=BB12_53 Depth=4
	movq	288(%rsp), %rax                 # 8-byte Reload
	movq	48(%rsp), %rcx                  # 8-byte Reload
	addl	%ecx, %eax
	movl	%eax, 88(%rsp)                  # 4-byte Spill
	movslq	112(%rsp), %rbx                 # 4-byte Folded Reload
	movq	200(%rsp), %rax                 # 8-byte Reload
	movl	24(%rax), %ecx
	movq	8(%rax), %r13
	movq	168(%rsp), %rax                 # 8-byte Reload
	movq	8(%rax), %r10
	movq	96(%rsp), %rax                  # 8-byte Reload
	movq	8(%rax), %rax
	movl	72(%rsp), %edi                  # 4-byte Reload
	imull	%ecx, %edi
	movl	104(%rsp), %r14d                # 4-byte Reload
	addl	%r14d, %edi
	movl	56(%rsp), %r9d                  # 4-byte Reload
	imull	%r9d, %edi
	movl	%edi, 80(%rsp)                  # 4-byte Spill
	movl	120(%rsp), %r8d                 # 4-byte Reload
	imull	%ecx, %r8d
	movl	16(%rsp), %edi                  # 4-byte Reload
	movl	%ecx, 184(%rsp)                 # 4-byte Spill
	imull	%ecx, %edi
	addl	%r14d, %edi
	imull	%r9d, %edi
	movl	%edi, 216(%rsp)                 # 4-byte Spill
	xorl	%r15d, %r15d
	movq	%rbx, 32(%rsp)                  # 8-byte Spill
	jmp	.LBB12_55
	.p2align	4, 0x90
.LBB12_164:                             #   in Loop: Header=BB12_55 Depth=5
	incq	%r15
	cmpq	224(%rsp), %r15                 # 8-byte Folded Reload
	je	.LBB12_165
.LBB12_55:                              #   Parent Loop BB12_46 Depth=1
                                        #     Parent Loop BB12_48 Depth=2
                                        #       Parent Loop BB12_50 Depth=3
                                        #         Parent Loop BB12_53 Depth=4
                                        # =>        This Loop Header: Depth=5
                                        #             Child Loop BB12_168 Depth 6
	leaq	(%r15,%rbx), %r14
	cmpl	%edx, 136(%rsp)                 # 4-byte Folded Reload
	jae	.LBB12_167
# %bb.56:                               #   in Loop: Header=BB12_55 Depth=5
	xorl	%ecx, %ecx
	movl	12(%rsp), %edi                  # 4-byte Reload
                                        # kill: def $edi killed $edi def $rdi
	testb	$1, %sil
	je	.LBB12_164
	jmp	.LBB12_163
	.p2align	4, 0x90
.LBB12_167:                             #   in Loop: Header=BB12_55 Depth=5
	movl	144(%rsp), %ecx                 # 4-byte Reload
	movl	%ecx, %edi
	movl	216(%rsp), %ecx                 # 4-byte Reload
	movl	%ecx, %esi
	movl	80(%rsp), %ecx                  # 4-byte Reload
	movl	%ecx, %r12d
	xorl	%ecx, %ecx
	movq	128(%rsp), %r9                  # 8-byte Reload
	.p2align	4, 0x90
.LBB12_168:                             #   Parent Loop BB12_46 Depth=1
                                        #     Parent Loop BB12_48 Depth=2
                                        #       Parent Loop BB12_50 Depth=3
                                        #         Parent Loop BB12_53 Depth=4
                                        #           Parent Loop BB12_55 Depth=5
                                        # =>          This Inner Loop Header: Depth=6
	movslq	%esi, %rsi
	movq	%r11, %rdx
	leaq	(%r15,%rsi), %r11
	vmovss	(%r13,%r11,4), %xmm0            # xmm0 = mem[0],zero,zero,zero
	movq	%rdx, %r11
	vmovss	(%r10,%r14,4), %xmm1            # xmm1 = mem[0],zero,zero,zero
	movslq	%edi, %rdi
	vfmadd213ss	(%rax,%rdi,4), %xmm0, %xmm1 # xmm1 = (xmm0 * xmm1) + mem
	vmovss	%xmm1, (%rax,%rdi,4)
	leal	(%rdx,%rdi), %ebx
	movslq	%r12d, %r12
	leaq	(%r15,%r12), %rdx
	vmovss	(%r13,%rdx,4), %xmm0            # xmm0 = mem[0],zero,zero,zero
	vmovss	(%r10,%r14,4), %xmm1            # xmm1 = mem[0],zero,zero,zero
	movslq	%ebx, %rdx
	vfmadd213ss	(%rax,%rdx,4), %xmm0, %xmm1 # xmm1 = (xmm0 * xmm1) + mem
	vmovss	%xmm1, (%rax,%rdx,4)
	addq	$2, %rcx
	addl	%r8d, %r12d
	addl	%r8d, %esi
	addl	%ebp, %edi
	addq	$-2, %r9
	jne	.LBB12_168
# %bb.161:                              #   in Loop: Header=BB12_55 Depth=5
	addl	176(%rsp), %edi                 # 4-byte Folded Reload
	movq	272(%rsp), %rdx                 # 8-byte Reload
	movq	208(%rsp), %rsi                 # 8-byte Reload
	movq	32(%rsp), %rbx                  # 8-byte Reload
	testb	$1, %sil
	je	.LBB12_164
.LBB12_163:                             #   in Loop: Header=BB12_55 Depth=5
	addl	%r11d, %edi
	imull	%edx, %ecx
	addl	16(%rsp), %ecx                  # 4-byte Folded Reload
	imull	184(%rsp), %ecx                 # 4-byte Folded Reload
	addl	88(%rsp), %ecx                  # 4-byte Folded Reload
	imull	56(%rsp), %ecx                  # 4-byte Folded Reload
	movslq	%ecx, %rcx
	addq	%r15, %rcx
	vmovss	(%r13,%rcx,4), %xmm0            # xmm0 = mem[0],zero,zero,zero
	vmovss	(%r10,%r14,4), %xmm1            # xmm1 = mem[0],zero,zero,zero
	movslq	%edi, %rcx
	vfmadd213ss	(%rax,%rcx,4), %xmm0, %xmm1 # xmm1 = (xmm0 * xmm1) + mem
	vmovss	%xmm1, (%rax,%rcx,4)
	jmp	.LBB12_164
.LBB12_78:
	cmpl	$0, 192(%rsp)                   # 4-byte Folded Reload
	je	.LBB12_194
# %bb.79:
	movq	%rdx, %rcx
	movq	96(%rsp), %rax                  # 8-byte Reload
	movl	24(%rax), %edx
	movl	%edx, 288(%rsp)                 # 4-byte Spill
	movl	28(%rax), %eax
	movl	%eax, 72(%rsp)                  # 4-byte Spill
	movq	224(%rsp), %rbp                 # 8-byte Reload
	leaq	-1(%rbp), %rax
	movq	%rax, 136(%rsp)                 # 8-byte Spill
	movl	%ebp, %edi
	andl	$3, %edi
	andq	$-4, %rbp
	xorl	%eax, %eax
	movq	%rax, 48(%rsp)                  # 8-byte Spill
	xorl	%eax, %eax
	movq	%rax, 120(%rsp)                 # 8-byte Spill
	jmp	.LBB12_80
	.p2align	4, 0x90
.LBB12_98:                              #   in Loop: Header=BB12_80 Depth=1
	movq	120(%rsp), %rax                 # 8-byte Reload
	leal	1(%rax), %r8d
	movq	%rdx, %rcx
	movq	48(%rsp), %rsi                  # 8-byte Reload
	addl	%edx, %esi
	movq	%rsi, 48(%rsp)                  # 8-byte Spill
	cmpl	344(%rsp), %eax                 # 4-byte Folded Reload
	movl	%r8d, %eax
	movq	%rax, 120(%rsp)                 # 8-byte Spill
	je	.LBB12_194
.LBB12_80:                              # =>This Loop Header: Depth=1
                                        #     Child Loop BB12_82 Depth 2
                                        #       Child Loop BB12_84 Depth 3
                                        #         Child Loop BB12_87 Depth 4
                                        #           Child Loop BB12_89 Depth 5
                                        #             Child Loop BB12_156 Depth 6
                                        #             Child Loop BB12_93 Depth 6
	cmpl	$0, 68(%rsp)                    # 4-byte Folded Reload
	movq	%rcx, %rdx
	je	.LBB12_98
# %bb.81:                               #   in Loop: Header=BB12_80 Depth=1
	movl	288(%rsp), %ecx                 # 4-byte Reload
	imull	120(%rsp), %ecx                 # 4-byte Folded Reload
	movl	72(%rsp), %eax                  # 4-byte Reload
	imull	%eax, %ecx
	subl	%eax, %ecx
	movl	%ecx, 104(%rsp)                 # 4-byte Spill
	movl	$0, 128(%rsp)                   # 4-byte Folded Spill
	xorl	%eax, %eax
	jmp	.LBB12_82
	.p2align	4, 0x90
.LBB12_97:                              #   in Loop: Header=BB12_82 Depth=2
	movq	160(%rsp), %rcx                 # 8-byte Reload
	leal	1(%rcx), %eax
	movq	272(%rsp), %rdx                 # 8-byte Reload
	addl	%edx, 128(%rsp)                 # 4-byte Folded Spill
	cmpl	320(%rsp), %ecx                 # 4-byte Folded Reload
                                        # kill: def $eax killed $eax def $rax
	movl	156(%rsp), %ebx                 # 4-byte Reload
	je	.LBB12_98
.LBB12_82:                              #   Parent Loop BB12_80 Depth=1
                                        # =>  This Loop Header: Depth=2
                                        #       Child Loop BB12_84 Depth 3
                                        #         Child Loop BB12_87 Depth 4
                                        #           Child Loop BB12_89 Depth 5
                                        #             Child Loop BB12_156 Depth 6
                                        #             Child Loop BB12_93 Depth 6
	movq	%rax, 160(%rsp)                 # 8-byte Spill
	movl	104(%rsp), %eax                 # 4-byte Reload
	addl	72(%rsp), %eax                  # 4-byte Folded Reload
	movl	%eax, 104(%rsp)                 # 4-byte Spill
	testl	%ebx, %ebx
	je	.LBB12_97
# %bb.83:                               #   in Loop: Header=BB12_82 Depth=2
	movq	168(%rsp), %rax                 # 8-byte Reload
	movl	16(%rax), %r8d
	movl	28(%rax), %ecx
	movl	24(%rax), %eax
	imull	%r8d, %eax
	imull	%ecx, %eax
	movl	%eax, 12(%rsp)                  # 4-byte Spill
	movl	%ecx, 208(%rsp)                 # 4-byte Spill
	imull	%ecx, %r8d
	movslq	104(%rsp), %rax                 # 4-byte Folded Reload
	movq	%rax, 112(%rsp)                 # 8-byte Spill
	xorl	%eax, %eax
	movq	%rax, 176(%rsp)                 # 8-byte Spill
	xorl	%eax, %eax
	movq	%rax, 144(%rsp)                 # 8-byte Spill
	jmp	.LBB12_84
	.p2align	4, 0x90
.LBB12_96:                              #   in Loop: Header=BB12_84 Depth=3
	movq	144(%rsp), %rcx                 # 8-byte Reload
	incq	%rcx
	movq	176(%rsp), %rax                 # 8-byte Reload
	addl	208(%rsp), %eax                 # 4-byte Folded Reload
	movq	%rax, 176(%rsp)                 # 8-byte Spill
	movq	%rcx, %rax
	movq	%rcx, 144(%rsp)                 # 8-byte Spill
	cmpq	16(%rsp), %rcx                  # 8-byte Folded Reload
	je	.LBB12_97
.LBB12_84:                              #   Parent Loop BB12_80 Depth=1
                                        #     Parent Loop BB12_82 Depth=2
                                        # =>    This Loop Header: Depth=3
                                        #         Child Loop BB12_87 Depth 4
                                        #           Child Loop BB12_89 Depth 5
                                        #             Child Loop BB12_156 Depth 6
                                        #             Child Loop BB12_93 Depth 6
	testl	%r13d, %r13d
	je	.LBB12_96
# %bb.85:                               #   in Loop: Header=BB12_84 Depth=3
	cmpl	$0, 28(%rsp)                    # 4-byte Folded Reload
	je	.LBB12_96
# %bb.86:                               #   in Loop: Header=BB12_84 Depth=3
	movq	112(%rsp), %rax                 # 8-byte Reload
	movq	144(%rsp), %rcx                 # 8-byte Reload
	leaq	(%rcx,%rax), %r10
	movq	200(%rsp), %rax                 # 8-byte Reload
	movl	24(%rax), %ecx
	movl	28(%rax), %r14d
	movq	48(%rsp), %rax                  # 8-byte Reload
                                        # kill: def $eax killed $eax killed $rax def $rax
	imull	%ecx, %eax
	addl	128(%rsp), %eax                 # 4-byte Folded Reload
	imull	%r14d, %eax
	movq	%rax, 32(%rsp)                  # 8-byte Spill
	imull	%r14d, %ecx
	movq	%rcx, 216(%rsp)                 # 8-byte Spill
	xorl	%ecx, %ecx
	movq	176(%rsp), %rax                 # 8-byte Reload
                                        # kill: def $eax killed $eax killed $rax
	movl	%eax, 184(%rsp)                 # 4-byte Spill
	jmp	.LBB12_87
	.p2align	4, 0x90
.LBB12_95:                              #   in Loop: Header=BB12_87 Depth=4
	movl	80(%rsp), %ecx                  # 4-byte Reload
	incl	%ecx
	movq	32(%rsp), %rax                  # 8-byte Reload
	addq	216(%rsp), %rax                 # 8-byte Folded Reload
	movq	%rax, 32(%rsp)                  # 8-byte Spill
	movl	184(%rsp), %eax                 # 4-byte Reload
	addl	12(%rsp), %eax                  # 4-byte Folded Reload
	movl	%eax, 184(%rsp)                 # 4-byte Spill
	movq	368(%rsp), %r13                 # 8-byte Reload
	cmpl	%r13d, %ecx
	je	.LBB12_96
.LBB12_87:                              #   Parent Loop BB12_80 Depth=1
                                        #     Parent Loop BB12_82 Depth=2
                                        #       Parent Loop BB12_84 Depth=3
                                        # =>      This Loop Header: Depth=4
                                        #           Child Loop BB12_89 Depth 5
                                        #             Child Loop BB12_156 Depth 6
                                        #             Child Loop BB12_93 Depth 6
	movl	%ecx, 80(%rsp)                  # 4-byte Spill
	cmpl	$0, 224(%rsp)                   # 4-byte Folded Reload
	je	.LBB12_95
# %bb.88:                               #   in Loop: Header=BB12_87 Depth=4
	movq	200(%rsp), %rax                 # 8-byte Reload
	movq	8(%rax), %rbx
	movq	168(%rsp), %rax                 # 8-byte Reload
	movq	8(%rax), %rcx
	movq	96(%rsp), %rax                  # 8-byte Reload
	movq	8(%rax), %r9
	vmovss	(%r9,%r10,4), %xmm0             # xmm0 = mem[0],zero,zero,zero
	movq	%rcx, 56(%rsp)                  # 8-byte Spill
	leaq	12(%rcx), %rax
	movq	%rax, 88(%rsp)                  # 8-byte Spill
	xorl	%r11d, %r11d
	movl	184(%rsp), %r12d                # 4-byte Reload
	movq	32(%rsp), %r15                  # 8-byte Reload
	jmp	.LBB12_89
	.p2align	4, 0x90
.LBB12_94:                              #   in Loop: Header=BB12_89 Depth=5
	incl	%r11d
	addq	%r14, %r15
	addl	%r8d, %r12d
	cmpl	28(%rsp), %r11d                 # 4-byte Folded Reload
	je	.LBB12_95
.LBB12_89:                              #   Parent Loop BB12_80 Depth=1
                                        #     Parent Loop BB12_82 Depth=2
                                        #       Parent Loop BB12_84 Depth=3
                                        #         Parent Loop BB12_87 Depth=4
                                        # =>        This Loop Header: Depth=5
                                        #             Child Loop BB12_156 Depth 6
                                        #             Child Loop BB12_93 Depth 6
	movslq	%r12d, %rsi
	cmpq	$3, 136(%rsp)                   # 8-byte Folded Reload
	jae	.LBB12_155
# %bb.90:                               #   in Loop: Header=BB12_89 Depth=5
	xorl	%r13d, %r13d
	jmp	.LBB12_91
	.p2align	4, 0x90
.LBB12_155:                             #   in Loop: Header=BB12_89 Depth=5
	movq	88(%rsp), %rax                  # 8-byte Reload
	leaq	(%rax,%rsi,4), %rax
	xorl	%r13d, %r13d
	.p2align	4, 0x90
.LBB12_156:                             #   Parent Loop BB12_80 Depth=1
                                        #     Parent Loop BB12_82 Depth=2
                                        #       Parent Loop BB12_84 Depth=3
                                        #         Parent Loop BB12_87 Depth=4
                                        #           Parent Loop BB12_89 Depth=5
                                        # =>          This Inner Loop Header: Depth=6
	leaq	(%r15,%r13), %rdx
	movslq	%edx, %rdx
	vmovss	-12(%rax,%r13,4), %xmm1         # xmm1 = mem[0],zero,zero,zero
	vfmadd132ss	(%rbx,%rdx,4), %xmm0, %xmm1 # xmm1 = (xmm1 * mem) + xmm0
	vmovss	%xmm1, (%r9,%r10,4)
	leal	1(%rdx), %ecx
	movslq	%ecx, %rcx
	vmovss	-8(%rax,%r13,4), %xmm0          # xmm0 = mem[0],zero,zero,zero
	vfmadd132ss	(%rbx,%rcx,4), %xmm1, %xmm0 # xmm0 = (xmm0 * mem) + xmm1
	vmovss	%xmm0, (%r9,%r10,4)
	leal	2(%rdx), %ecx
	movslq	%ecx, %rcx
	vmovss	-4(%rax,%r13,4), %xmm1          # xmm1 = mem[0],zero,zero,zero
	vfmadd132ss	(%rbx,%rcx,4), %xmm0, %xmm1 # xmm1 = (xmm1 * mem) + xmm0
	vmovss	%xmm1, (%r9,%r10,4)
	addl	$3, %edx
	movslq	%edx, %rcx
	vmovss	(%rax,%r13,4), %xmm0            # xmm0 = mem[0],zero,zero,zero
	vfmadd132ss	(%rbx,%rcx,4), %xmm1, %xmm0 # xmm0 = (xmm0 * mem) + xmm1
	vmovss	%xmm0, (%r9,%r10,4)
	addq	$4, %r13
	cmpq	%r13, %rbp
	jne	.LBB12_156
.LBB12_91:                              #   in Loop: Header=BB12_89 Depth=5
	testq	%rdi, %rdi
	je	.LBB12_94
# %bb.92:                               #   in Loop: Header=BB12_89 Depth=5
	addq	%r13, %rsi
	movq	56(%rsp), %rax                  # 8-byte Reload
	leaq	(%rax,%rsi,4), %rax
	addl	%r15d, %r13d
	xorl	%esi, %esi
	.p2align	4, 0x90
.LBB12_93:                              #   Parent Loop BB12_80 Depth=1
                                        #     Parent Loop BB12_82 Depth=2
                                        #       Parent Loop BB12_84 Depth=3
                                        #         Parent Loop BB12_87 Depth=4
                                        #           Parent Loop BB12_89 Depth=5
                                        # =>          This Inner Loop Header: Depth=6
	leal	(%rsi,%r13), %edx
	movslq	%edx, %rdx
	vmovss	(%rax,%rsi,4), %xmm1            # xmm1 = mem[0],zero,zero,zero
	vfmadd231ss	(%rbx,%rdx,4), %xmm1, %xmm0 # xmm0 = (xmm1 * mem) + xmm0
	vmovss	%xmm0, (%r9,%r10,4)
	incq	%rsi
	cmpq	%rsi, %rdi
	jne	.LBB12_93
	jmp	.LBB12_94
.LBB12_193:
	movl	$_ZSt4cerr, %edi
	movl	$.L.str.6, %esi
	movl	$50, %edx
	callq	_ZSt16__ostream_insertIcSt11char_traitsIcEERSt13basic_ostreamIT_T0_ES6_PKS3_l
	jmp	.LBB12_194
.LBB12_57:
	cmpl	$0, 68(%rsp)                    # 4-byte Folded Reload
	movl	192(%rsp), %ecx                 # 4-byte Reload
	je	.LBB12_194
# %bb.58:
	movq	%rdx, %rdi
	movq	96(%rsp), %rax                  # 8-byte Reload
	movl	28(%rax), %eax
	movl	%eax, 120(%rsp)                 # 4-byte Spill
	movq	224(%rsp), %rsi                 # 8-byte Reload
	leaq	-1(%rsi), %rax
	movq	%rax, 136(%rsp)                 # 8-byte Spill
	movl	%esi, %edx
	andl	$3, %edx
	andq	$-4, %rsi
	xorl	%eax, %eax
	movq	%rax, 112(%rsp)                 # 8-byte Spill
	xorl	%eax, %eax
	movq	%rax, 72(%rsp)                  # 8-byte Spill
	jmp	.LBB12_59
	.p2align	4, 0x90
.LBB12_77:                              #   in Loop: Header=BB12_59 Depth=1
	movq	72(%rsp), %rax                  # 8-byte Reload
	leal	1(%rax), %r8d
	movq	112(%rsp), %rbp                 # 8-byte Reload
	addl	%edi, %ebp
	movq	%rbp, 112(%rsp)                 # 8-byte Spill
	cmpl	320(%rsp), %eax                 # 4-byte Folded Reload
	movl	%r8d, %eax
	movq	%rax, 72(%rsp)                  # 8-byte Spill
	je	.LBB12_194
.LBB12_59:                              # =>This Loop Header: Depth=1
                                        #     Child Loop BB12_61 Depth 2
                                        #       Child Loop BB12_63 Depth 3
                                        #         Child Loop BB12_66 Depth 4
                                        #           Child Loop BB12_68 Depth 5
                                        #             Child Loop BB12_158 Depth 6
                                        #             Child Loop BB12_72 Depth 6
	testl	%ebx, %ebx
	je	.LBB12_77
# %bb.60:                               #   in Loop: Header=BB12_59 Depth=1
	movl	120(%rsp), %ebp                 # 4-byte Reload
	movl	%ebp, %eax
	imull	72(%rsp), %eax                  # 4-byte Folded Reload
	movq	%rax, 160(%rsp)                 # 8-byte Spill
	movq	96(%rsp), %rax                  # 8-byte Reload
	movl	24(%rax), %eax
	imull	%ebp, %eax
	movl	%eax, 208(%rsp)                 # 4-byte Spill
	movq	168(%rsp), %rax                 # 8-byte Reload
	movl	16(%rax), %ebp
	movl	28(%rax), %ebx
	movl	24(%rax), %eax
	imull	%ebp, %eax
	imull	%ebx, %eax
	movl	%eax, 216(%rsp)                 # 4-byte Spill
	movl	%ebx, 104(%rsp)                 # 4-byte Spill
	imull	%ebx, %ebp
	movl	%ebp, 16(%rsp)                  # 4-byte Spill
	movl	$0, 128(%rsp)                   # 4-byte Folded Spill
	xorl	%eax, %eax
	movq	%rax, 48(%rsp)                  # 8-byte Spill
	jmp	.LBB12_61
	.p2align	4, 0x90
.LBB12_76:                              #   in Loop: Header=BB12_61 Depth=2
	movq	48(%rsp), %rcx                  # 8-byte Reload
	incl	%ecx
	movl	128(%rsp), %eax                 # 4-byte Reload
	addl	104(%rsp), %eax                 # 4-byte Folded Reload
	movl	%eax, 128(%rsp)                 # 4-byte Spill
	movl	156(%rsp), %ebx                 # 4-byte Reload
	movq	%rcx, 48(%rsp)                  # 8-byte Spill
	cmpl	%ebx, %ecx
	movl	192(%rsp), %ecx                 # 4-byte Reload
	je	.LBB12_77
.LBB12_61:                              #   Parent Loop BB12_59 Depth=1
                                        # =>  This Loop Header: Depth=2
                                        #       Child Loop BB12_63 Depth 3
                                        #         Child Loop BB12_66 Depth 4
                                        #           Child Loop BB12_68 Depth 5
                                        #             Child Loop BB12_158 Depth 6
                                        #             Child Loop BB12_72 Depth 6
	testl	%ecx, %ecx
	je	.LBB12_76
# %bb.62:                               #   in Loop: Header=BB12_61 Depth=2
	movq	160(%rsp), %rax                 # 8-byte Reload
	movq	48(%rsp), %rcx                  # 8-byte Reload
	addl	%ecx, %eax
	subl	208(%rsp), %eax                 # 4-byte Folded Reload
	movl	%eax, 12(%rsp)                  # 4-byte Spill
	movl	$0, 144(%rsp)                   # 4-byte Folded Spill
	xorl	%eax, %eax
	jmp	.LBB12_63
	.p2align	4, 0x90
.LBB12_75:                              #   in Loop: Header=BB12_63 Depth=3
	movq	176(%rsp), %rcx                 # 8-byte Reload
	leal	1(%rcx), %eax
	movq	272(%rsp), %rdi                 # 8-byte Reload
	addl	%edi, 144(%rsp)                 # 4-byte Folded Spill
	cmpl	344(%rsp), %ecx                 # 4-byte Folded Reload
                                        # kill: def $eax killed $eax def $rax
	je	.LBB12_76
.LBB12_63:                              #   Parent Loop BB12_59 Depth=1
                                        #     Parent Loop BB12_61 Depth=2
                                        # =>    This Loop Header: Depth=3
                                        #         Child Loop BB12_66 Depth 4
                                        #           Child Loop BB12_68 Depth 5
                                        #             Child Loop BB12_158 Depth 6
                                        #             Child Loop BB12_72 Depth 6
	movq	%rax, 176(%rsp)                 # 8-byte Spill
	movl	12(%rsp), %eax                  # 4-byte Reload
	addl	208(%rsp), %eax                 # 4-byte Folded Reload
	movl	%eax, 12(%rsp)                  # 4-byte Spill
	testl	%r13d, %r13d
	je	.LBB12_75
# %bb.64:                               #   in Loop: Header=BB12_63 Depth=3
	cmpl	$0, 28(%rsp)                    # 4-byte Folded Reload
	je	.LBB12_75
# %bb.65:                               #   in Loop: Header=BB12_63 Depth=3
	movq	200(%rsp), %rax                 # 8-byte Reload
	movl	24(%rax), %ecx
	movl	28(%rax), %r10d
	movslq	12(%rsp), %r11                  # 4-byte Folded Reload
	movl	%ecx, %eax
	imull	144(%rsp), %eax                 # 4-byte Folded Reload
	addl	112(%rsp), %eax                 # 4-byte Folded Reload
	imull	%r10d, %eax
	movq	%rax, 88(%rsp)                  # 8-byte Spill
	imull	%r10d, %ecx
	movq	%rcx, 80(%rsp)                  # 8-byte Spill
	xorl	%ecx, %ecx
	movl	128(%rsp), %eax                 # 4-byte Reload
	movl	%eax, 32(%rsp)                  # 4-byte Spill
	jmp	.LBB12_66
	.p2align	4, 0x90
.LBB12_74:                              #   in Loop: Header=BB12_66 Depth=4
	movl	184(%rsp), %ecx                 # 4-byte Reload
	incl	%ecx
	movq	88(%rsp), %rax                  # 8-byte Reload
	addq	80(%rsp), %rax                  # 8-byte Folded Reload
	movq	%rax, 88(%rsp)                  # 8-byte Spill
	movl	32(%rsp), %eax                  # 4-byte Reload
	addl	216(%rsp), %eax                 # 4-byte Folded Reload
	movl	%eax, 32(%rsp)                  # 4-byte Spill
	movq	368(%rsp), %r13                 # 8-byte Reload
	cmpl	%r13d, %ecx
	je	.LBB12_75
.LBB12_66:                              #   Parent Loop BB12_59 Depth=1
                                        #     Parent Loop BB12_61 Depth=2
                                        #       Parent Loop BB12_63 Depth=3
                                        # =>      This Loop Header: Depth=4
                                        #           Child Loop BB12_68 Depth 5
                                        #             Child Loop BB12_158 Depth 6
